Archive member included to satisfy reference by file (symbol)

/opt/gcc-arm-none-eabi-10.3-2021.10/bin/../lib/gcc/arm-none-eabi/10.3.1/../../../../arm-none-eabi/lib/thumb/v7e-m+fp/hard/libc_nano.a(lib_a-aeabi_atexit.o)
                              /home/tony/workdir/stm32h7xxcpplib/output/main.o (__aeabi_atexit)
/opt/gcc-arm-none-eabi-10.3-2021.10/bin/../lib/gcc/arm-none-eabi/10.3.1/../../../../arm-none-eabi/lib/thumb/v7e-m+fp/hard/libc_nano.a(lib_a-cxa_atexit.o)
                              /opt/gcc-arm-none-eabi-10.3-2021.10/bin/../lib/gcc/arm-none-eabi/10.3.1/../../../../arm-none-eabi/lib/thumb/v7e-m+fp/hard/libc_nano.a(lib_a-aeabi_atexit.o) (__cxa_atexit)
/opt/gcc-arm-none-eabi-10.3-2021.10/bin/../lib/gcc/arm-none-eabi/10.3.1/../../../../arm-none-eabi/lib/thumb/v7e-m+fp/hard/libc_nano.a(lib_a-exit.o)
                              /opt/gcc-arm-none-eabi-10.3-2021.10/bin/../lib/gcc/arm-none-eabi/10.3.1/../../../../arm-none-eabi/lib/thumb/v7e-m+fp/hard/crt0.o (exit)
/opt/gcc-arm-none-eabi-10.3-2021.10/bin/../lib/gcc/arm-none-eabi/10.3.1/../../../../arm-none-eabi/lib/thumb/v7e-m+fp/hard/libc_nano.a(lib_a-impure.o)
                              /opt/gcc-arm-none-eabi-10.3-2021.10/bin/../lib/gcc/arm-none-eabi/10.3.1/../../../../arm-none-eabi/lib/thumb/v7e-m+fp/hard/libc_nano.a(lib_a-exit.o) (_global_impure_ptr)
/opt/gcc-arm-none-eabi-10.3-2021.10/bin/../lib/gcc/arm-none-eabi/10.3.1/../../../../arm-none-eabi/lib/thumb/v7e-m+fp/hard/libc_nano.a(lib_a-init.o)
                              /opt/gcc-arm-none-eabi-10.3-2021.10/bin/../lib/gcc/arm-none-eabi/10.3.1/../../../../arm-none-eabi/lib/thumb/v7e-m+fp/hard/crt0.o (__libc_init_array)
/opt/gcc-arm-none-eabi-10.3-2021.10/bin/../lib/gcc/arm-none-eabi/10.3.1/../../../../arm-none-eabi/lib/thumb/v7e-m+fp/hard/libc_nano.a(lib_a-memcpy-stub.o)
                              /home/tony/workdir/stm32h7xxcpplib/output/mmem.o (memcpy)
/opt/gcc-arm-none-eabi-10.3-2021.10/bin/../lib/gcc/arm-none-eabi/10.3.1/../../../../arm-none-eabi/lib/thumb/v7e-m+fp/hard/libc_nano.a(lib_a-memset.o)
                              /opt/gcc-arm-none-eabi-10.3-2021.10/bin/../lib/gcc/arm-none-eabi/10.3.1/../../../../arm-none-eabi/lib/thumb/v7e-m+fp/hard/crt0.o (memset)
/opt/gcc-arm-none-eabi-10.3-2021.10/bin/../lib/gcc/arm-none-eabi/10.3.1/../../../../arm-none-eabi/lib/thumb/v7e-m+fp/hard/libc_nano.a(lib_a-on_exit_args.o)
                              /opt/gcc-arm-none-eabi-10.3-2021.10/bin/../lib/gcc/arm-none-eabi/10.3.1/../../../../arm-none-eabi/lib/thumb/v7e-m+fp/hard/libc_nano.a(lib_a-cxa_atexit.o) (__on_exit_args)
/opt/gcc-arm-none-eabi-10.3-2021.10/bin/../lib/gcc/arm-none-eabi/10.3.1/../../../../arm-none-eabi/lib/thumb/v7e-m+fp/hard/libc_nano.a(lib_a-printf.o)
                              /home/tony/workdir/stm32h7xxcpplib/output/main.o (printf)
/opt/gcc-arm-none-eabi-10.3-2021.10/bin/../lib/gcc/arm-none-eabi/10.3.1/../../../../arm-none-eabi/lib/thumb/v7e-m+fp/hard/libc_nano.a(lib_a-strncmp.o)
                              /home/tony/workdir/stm32h7xxcpplib/output/mobject.o (strncmp)
/opt/gcc-arm-none-eabi-10.3-2021.10/bin/../lib/gcc/arm-none-eabi/10.3.1/../../../../arm-none-eabi/lib/thumb/v7e-m+fp/hard/libc_nano.a(lib_a-strncpy.o)
                              /home/tony/workdir/stm32h7xxcpplib/output/mobject.o (strncpy)
/opt/gcc-arm-none-eabi-10.3-2021.10/bin/../lib/gcc/arm-none-eabi/10.3.1/../../../../arm-none-eabi/lib/thumb/v7e-m+fp/hard/libc_nano.a(lib_a-findfp.o)
                              /opt/gcc-arm-none-eabi-10.3-2021.10/bin/../lib/gcc/arm-none-eabi/10.3.1/../../../../arm-none-eabi/lib/thumb/v7e-m+fp/hard/libc_nano.a(lib_a-printf.o) (__sinit)
/opt/gcc-arm-none-eabi-10.3-2021.10/bin/../lib/gcc/arm-none-eabi/10.3.1/../../../../arm-none-eabi/lib/thumb/v7e-m+fp/hard/libc_nano.a(lib_a-fwalk.o)
                              /opt/gcc-arm-none-eabi-10.3-2021.10/bin/../lib/gcc/arm-none-eabi/10.3.1/../../../../arm-none-eabi/lib/thumb/v7e-m+fp/hard/libc_nano.a(lib_a-findfp.o) (_fwalk)
/opt/gcc-arm-none-eabi-10.3-2021.10/bin/../lib/gcc/arm-none-eabi/10.3.1/../../../../arm-none-eabi/lib/thumb/v7e-m+fp/hard/libc_nano.a(lib_a-lock.o)
                              /opt/gcc-arm-none-eabi-10.3-2021.10/bin/../lib/gcc/arm-none-eabi/10.3.1/../../../../arm-none-eabi/lib/thumb/v7e-m+fp/hard/libc_nano.a(lib_a-findfp.o) (__retarget_lock_init_recursive)
/opt/gcc-arm-none-eabi-10.3-2021.10/bin/../lib/gcc/arm-none-eabi/10.3.1/../../../../arm-none-eabi/lib/thumb/v7e-m+fp/hard/libc_nano.a(lib_a-nano-mallocr.o)
                              /opt/gcc-arm-none-eabi-10.3-2021.10/bin/../lib/gcc/arm-none-eabi/10.3.1/../../../../arm-none-eabi/lib/thumb/v7e-m+fp/hard/libc_nano.a(lib_a-findfp.o) (_malloc_r)
/opt/gcc-arm-none-eabi-10.3-2021.10/bin/../lib/gcc/arm-none-eabi/10.3.1/../../../../arm-none-eabi/lib/thumb/v7e-m+fp/hard/libc_nano.a(lib_a-nano-vfprintf.o)
                              /opt/gcc-arm-none-eabi-10.3-2021.10/bin/../lib/gcc/arm-none-eabi/10.3.1/../../../../arm-none-eabi/lib/thumb/v7e-m+fp/hard/libc_nano.a(lib_a-printf.o) (_vfprintf_r)
/opt/gcc-arm-none-eabi-10.3-2021.10/bin/../lib/gcc/arm-none-eabi/10.3.1/../../../../arm-none-eabi/lib/thumb/v7e-m+fp/hard/libc_nano.a(lib_a-nano-vfprintf_i.o)
                              /opt/gcc-arm-none-eabi-10.3-2021.10/bin/../lib/gcc/arm-none-eabi/10.3.1/../../../../arm-none-eabi/lib/thumb/v7e-m+fp/hard/libc_nano.a(lib_a-nano-vfprintf.o) (_printf_i)
/opt/gcc-arm-none-eabi-10.3-2021.10/bin/../lib/gcc/arm-none-eabi/10.3.1/../../../../arm-none-eabi/lib/thumb/v7e-m+fp/hard/libc_nano.a(lib_a-sbrkr.o)
                              /opt/gcc-arm-none-eabi-10.3-2021.10/bin/../lib/gcc/arm-none-eabi/10.3.1/../../../../arm-none-eabi/lib/thumb/v7e-m+fp/hard/libc_nano.a(lib_a-nano-mallocr.o) (_sbrk_r)
/opt/gcc-arm-none-eabi-10.3-2021.10/bin/../lib/gcc/arm-none-eabi/10.3.1/../../../../arm-none-eabi/lib/thumb/v7e-m+fp/hard/libc_nano.a(lib_a-stdio.o)
                              /opt/gcc-arm-none-eabi-10.3-2021.10/bin/../lib/gcc/arm-none-eabi/10.3.1/../../../../arm-none-eabi/lib/thumb/v7e-m+fp/hard/libc_nano.a(lib_a-findfp.o) (__sread)
/opt/gcc-arm-none-eabi-10.3-2021.10/bin/../lib/gcc/arm-none-eabi/10.3.1/../../../../arm-none-eabi/lib/thumb/v7e-m+fp/hard/libc_nano.a(lib_a-wbuf.o)
                              /opt/gcc-arm-none-eabi-10.3-2021.10/bin/../lib/gcc/arm-none-eabi/10.3.1/../../../../arm-none-eabi/lib/thumb/v7e-m+fp/hard/libc_nano.a(lib_a-nano-vfprintf.o) (__swbuf_r)
/opt/gcc-arm-none-eabi-10.3-2021.10/bin/../lib/gcc/arm-none-eabi/10.3.1/../../../../arm-none-eabi/lib/thumb/v7e-m+fp/hard/libc_nano.a(lib_a-writer.o)
                              /opt/gcc-arm-none-eabi-10.3-2021.10/bin/../lib/gcc/arm-none-eabi/10.3.1/../../../../arm-none-eabi/lib/thumb/v7e-m+fp/hard/libc_nano.a(lib_a-stdio.o) (_write_r)
/opt/gcc-arm-none-eabi-10.3-2021.10/bin/../lib/gcc/arm-none-eabi/10.3.1/../../../../arm-none-eabi/lib/thumb/v7e-m+fp/hard/libc_nano.a(lib_a-wsetup.o)
                              /opt/gcc-arm-none-eabi-10.3-2021.10/bin/../lib/gcc/arm-none-eabi/10.3.1/../../../../arm-none-eabi/lib/thumb/v7e-m+fp/hard/libc_nano.a(lib_a-nano-vfprintf.o) (__swsetup_r)
/opt/gcc-arm-none-eabi-10.3-2021.10/bin/../lib/gcc/arm-none-eabi/10.3.1/../../../../arm-none-eabi/lib/thumb/v7e-m+fp/hard/libc_nano.a(lib_a-closer.o)
                              /opt/gcc-arm-none-eabi-10.3-2021.10/bin/../lib/gcc/arm-none-eabi/10.3.1/../../../../arm-none-eabi/lib/thumb/v7e-m+fp/hard/libc_nano.a(lib_a-stdio.o) (_close_r)
/opt/gcc-arm-none-eabi-10.3-2021.10/bin/../lib/gcc/arm-none-eabi/10.3.1/../../../../arm-none-eabi/lib/thumb/v7e-m+fp/hard/libc_nano.a(lib_a-fflush.o)
                              /opt/gcc-arm-none-eabi-10.3-2021.10/bin/../lib/gcc/arm-none-eabi/10.3.1/../../../../arm-none-eabi/lib/thumb/v7e-m+fp/hard/libc_nano.a(lib_a-findfp.o) (_fflush_r)
/opt/gcc-arm-none-eabi-10.3-2021.10/bin/../lib/gcc/arm-none-eabi/10.3.1/../../../../arm-none-eabi/lib/thumb/v7e-m+fp/hard/libc_nano.a(lib_a-fvwrite.o)
                              /opt/gcc-arm-none-eabi-10.3-2021.10/bin/../lib/gcc/arm-none-eabi/10.3.1/../../../../arm-none-eabi/lib/thumb/v7e-m+fp/hard/libc_nano.a(lib_a-nano-vfprintf.o) (__sfvwrite_r)
/opt/gcc-arm-none-eabi-10.3-2021.10/bin/../lib/gcc/arm-none-eabi/10.3.1/../../../../arm-none-eabi/lib/thumb/v7e-m+fp/hard/libc_nano.a(lib_a-lseekr.o)
                              /opt/gcc-arm-none-eabi-10.3-2021.10/bin/../lib/gcc/arm-none-eabi/10.3.1/../../../../arm-none-eabi/lib/thumb/v7e-m+fp/hard/libc_nano.a(lib_a-stdio.o) (_lseek_r)
/opt/gcc-arm-none-eabi-10.3-2021.10/bin/../lib/gcc/arm-none-eabi/10.3.1/../../../../arm-none-eabi/lib/thumb/v7e-m+fp/hard/libc_nano.a(lib_a-makebuf.o)
                              /opt/gcc-arm-none-eabi-10.3-2021.10/bin/../lib/gcc/arm-none-eabi/10.3.1/../../../../arm-none-eabi/lib/thumb/v7e-m+fp/hard/libc_nano.a(lib_a-wsetup.o) (__smakebuf_r)
/opt/gcc-arm-none-eabi-10.3-2021.10/bin/../lib/gcc/arm-none-eabi/10.3.1/../../../../arm-none-eabi/lib/thumb/v7e-m+fp/hard/libc_nano.a(lib_a-memchr.o)
                              /opt/gcc-arm-none-eabi-10.3-2021.10/bin/../lib/gcc/arm-none-eabi/10.3.1/../../../../arm-none-eabi/lib/thumb/v7e-m+fp/hard/libc_nano.a(lib_a-nano-vfprintf.o) (memchr)
/opt/gcc-arm-none-eabi-10.3-2021.10/bin/../lib/gcc/arm-none-eabi/10.3.1/../../../../arm-none-eabi/lib/thumb/v7e-m+fp/hard/libc_nano.a(lib_a-memmove.o)
                              /opt/gcc-arm-none-eabi-10.3-2021.10/bin/../lib/gcc/arm-none-eabi/10.3.1/../../../../arm-none-eabi/lib/thumb/v7e-m+fp/hard/libc_nano.a(lib_a-fvwrite.o) (memmove)
/opt/gcc-arm-none-eabi-10.3-2021.10/bin/../lib/gcc/arm-none-eabi/10.3.1/../../../../arm-none-eabi/lib/thumb/v7e-m+fp/hard/libc_nano.a(lib_a-mlock.o)
                              /opt/gcc-arm-none-eabi-10.3-2021.10/bin/../lib/gcc/arm-none-eabi/10.3.1/../../../../arm-none-eabi/lib/thumb/v7e-m+fp/hard/libc_nano.a(lib_a-nano-mallocr.o) (__malloc_lock)
/opt/gcc-arm-none-eabi-10.3-2021.10/bin/../lib/gcc/arm-none-eabi/10.3.1/../../../../arm-none-eabi/lib/thumb/v7e-m+fp/hard/libc_nano.a(lib_a-nano-freer.o)
                              /opt/gcc-arm-none-eabi-10.3-2021.10/bin/../lib/gcc/arm-none-eabi/10.3.1/../../../../arm-none-eabi/lib/thumb/v7e-m+fp/hard/libc_nano.a(lib_a-wsetup.o) (_free_r)
/opt/gcc-arm-none-eabi-10.3-2021.10/bin/../lib/gcc/arm-none-eabi/10.3.1/../../../../arm-none-eabi/lib/thumb/v7e-m+fp/hard/libc_nano.a(lib_a-nano-reallocr.o)
                              /opt/gcc-arm-none-eabi-10.3-2021.10/bin/../lib/gcc/arm-none-eabi/10.3.1/../../../../arm-none-eabi/lib/thumb/v7e-m+fp/hard/libc_nano.a(lib_a-fvwrite.o) (_realloc_r)
/opt/gcc-arm-none-eabi-10.3-2021.10/bin/../lib/gcc/arm-none-eabi/10.3.1/../../../../arm-none-eabi/lib/thumb/v7e-m+fp/hard/libc_nano.a(lib_a-readr.o)
                              /opt/gcc-arm-none-eabi-10.3-2021.10/bin/../lib/gcc/arm-none-eabi/10.3.1/../../../../arm-none-eabi/lib/thumb/v7e-m+fp/hard/libc_nano.a(lib_a-stdio.o) (_read_r)
/opt/gcc-arm-none-eabi-10.3-2021.10/bin/../lib/gcc/arm-none-eabi/10.3.1/../../../../arm-none-eabi/lib/thumb/v7e-m+fp/hard/libc_nano.a(lib_a-reent.o)
                              /opt/gcc-arm-none-eabi-10.3-2021.10/bin/../lib/gcc/arm-none-eabi/10.3.1/../../../../arm-none-eabi/lib/thumb/v7e-m+fp/hard/libc_nano.a(lib_a-sbrkr.o) (errno)
/opt/gcc-arm-none-eabi-10.3-2021.10/bin/../lib/gcc/arm-none-eabi/10.3.1/../../../../arm-none-eabi/lib/thumb/v7e-m+fp/hard/libc_nano.a(lib_a-fstatr.o)
                              /opt/gcc-arm-none-eabi-10.3-2021.10/bin/../lib/gcc/arm-none-eabi/10.3.1/../../../../arm-none-eabi/lib/thumb/v7e-m+fp/hard/libc_nano.a(lib_a-makebuf.o) (_fstat_r)
/opt/gcc-arm-none-eabi-10.3-2021.10/bin/../lib/gcc/arm-none-eabi/10.3.1/../../../../arm-none-eabi/lib/thumb/v7e-m+fp/hard/libc_nano.a(lib_a-isattyr.o)
                              /opt/gcc-arm-none-eabi-10.3-2021.10/bin/../lib/gcc/arm-none-eabi/10.3.1/../../../../arm-none-eabi/lib/thumb/v7e-m+fp/hard/libc_nano.a(lib_a-makebuf.o) (_isatty_r)
/opt/gcc-arm-none-eabi-10.3-2021.10/bin/../lib/gcc/arm-none-eabi/10.3.1/../../../../arm-none-eabi/lib/thumb/v7e-m+fp/hard/libc_nano.a(lib_a-nano-msizer.o)
                              /opt/gcc-arm-none-eabi-10.3-2021.10/bin/../lib/gcc/arm-none-eabi/10.3.1/../../../../arm-none-eabi/lib/thumb/v7e-m+fp/hard/libc_nano.a(lib_a-nano-reallocr.o) (_malloc_usable_size_r)
/opt/gcc-arm-none-eabi-10.3-2021.10/bin/../lib/gcc/arm-none-eabi/10.3.1/../../../../arm-none-eabi/lib/thumb/v7e-m+fp/hard/libstdc++_nano.a(guard.o)
                              /home/tony/workdir/stm32h7xxcpplib/output/main.o (__cxa_guard_acquire)
/opt/gcc-arm-none-eabi-10.3-2021.10/bin/../lib/gcc/arm-none-eabi/10.3.1/../../../../arm-none-eabi/lib/thumb/v7e-m+fp/hard/libnosys.a(close.o)
                              /opt/gcc-arm-none-eabi-10.3-2021.10/bin/../lib/gcc/arm-none-eabi/10.3.1/../../../../arm-none-eabi/lib/thumb/v7e-m+fp/hard/libc_nano.a(lib_a-closer.o) (_close)
/opt/gcc-arm-none-eabi-10.3-2021.10/bin/../lib/gcc/arm-none-eabi/10.3.1/../../../../arm-none-eabi/lib/thumb/v7e-m+fp/hard/libnosys.a(fstat.o)
                              /opt/gcc-arm-none-eabi-10.3-2021.10/bin/../lib/gcc/arm-none-eabi/10.3.1/../../../../arm-none-eabi/lib/thumb/v7e-m+fp/hard/libc_nano.a(lib_a-fstatr.o) (_fstat)
/opt/gcc-arm-none-eabi-10.3-2021.10/bin/../lib/gcc/arm-none-eabi/10.3.1/../../../../arm-none-eabi/lib/thumb/v7e-m+fp/hard/libnosys.a(isatty.o)
                              /opt/gcc-arm-none-eabi-10.3-2021.10/bin/../lib/gcc/arm-none-eabi/10.3.1/../../../../arm-none-eabi/lib/thumb/v7e-m+fp/hard/libc_nano.a(lib_a-isattyr.o) (_isatty)
/opt/gcc-arm-none-eabi-10.3-2021.10/bin/../lib/gcc/arm-none-eabi/10.3.1/../../../../arm-none-eabi/lib/thumb/v7e-m+fp/hard/libnosys.a(lseek.o)
                              /opt/gcc-arm-none-eabi-10.3-2021.10/bin/../lib/gcc/arm-none-eabi/10.3.1/../../../../arm-none-eabi/lib/thumb/v7e-m+fp/hard/libc_nano.a(lib_a-lseekr.o) (_lseek)
/opt/gcc-arm-none-eabi-10.3-2021.10/bin/../lib/gcc/arm-none-eabi/10.3.1/../../../../arm-none-eabi/lib/thumb/v7e-m+fp/hard/libnosys.a(sbrk.o)
                              /opt/gcc-arm-none-eabi-10.3-2021.10/bin/../lib/gcc/arm-none-eabi/10.3.1/../../../../arm-none-eabi/lib/thumb/v7e-m+fp/hard/libc_nano.a(lib_a-sbrkr.o) (_sbrk)
/opt/gcc-arm-none-eabi-10.3-2021.10/bin/../lib/gcc/arm-none-eabi/10.3.1/../../../../arm-none-eabi/lib/thumb/v7e-m+fp/hard/libnosys.a(_exit.o)
                              /opt/gcc-arm-none-eabi-10.3-2021.10/bin/../lib/gcc/arm-none-eabi/10.3.1/../../../../arm-none-eabi/lib/thumb/v7e-m+fp/hard/libc_nano.a(lib_a-exit.o) (_exit)

Discarded input sections

 .group         0x0000000000000000        0x8 /home/tony/workdir/stm32h7xxcpplib/output/main.o
 .group         0x0000000000000000        0x8 /home/tony/workdir/stm32h7xxcpplib/output/main.o
 .group         0x0000000000000000        0x8 /home/tony/workdir/stm32h7xxcpplib/output/main.o
 .group         0x0000000000000000        0x8 /home/tony/workdir/stm32h7xxcpplib/output/main.o
 .group         0x0000000000000000        0xc /home/tony/workdir/stm32h7xxcpplib/output/main.o
 .group         0x0000000000000000        0x8 /home/tony/workdir/stm32h7xxcpplib/output/main.o
 .group         0x0000000000000000        0xc /home/tony/workdir/stm32h7xxcpplib/output/main.o
 .group         0x0000000000000000        0x8 /home/tony/workdir/stm32h7xxcpplib/output/main.o
 .group         0x0000000000000000        0x8 /home/tony/workdir/stm32h7xxcpplib/output/main.o
 .group         0x0000000000000000        0x8 /home/tony/workdir/stm32h7xxcpplib/output/main.o
 .group         0x0000000000000000        0x8 /home/tony/workdir/stm32h7xxcpplib/output/main.o
 .group         0x0000000000000000        0x8 /home/tony/workdir/stm32h7xxcpplib/output/board.o
 .group         0x0000000000000000        0x8 /home/tony/workdir/stm32h7xxcpplib/output/board.o
 .group         0x0000000000000000        0x8 /home/tony/workdir/stm32h7xxcpplib/output/board.o
 .group         0x0000000000000000        0xc /home/tony/workdir/stm32h7xxcpplib/output/board.o
 .group         0x0000000000000000        0x8 /home/tony/workdir/stm32h7xxcpplib/output/board.o
 .group         0x0000000000000000        0x8 /home/tony/workdir/stm32h7xxcpplib/output/board.o
 .group         0x0000000000000000        0x8 /home/tony/workdir/stm32h7xxcpplib/output/board.o
 .group         0x0000000000000000        0x8 /home/tony/workdir/stm32h7xxcpplib/output/board.o
 .group         0x0000000000000000        0x8 /home/tony/workdir/stm32h7xxcpplib/output/board.o
 .group         0x0000000000000000        0x8 /home/tony/workdir/stm32h7xxcpplib/output/board.o
 .text._ZN4mMemD2Ev
                0x0000000000000000        0x2 /home/tony/workdir/stm32h7xxcpplib/output/board.o
 .bss._ZGVZN4mMem11getInstanceEvE3mem
                0x0000000000000000        0x4 /home/tony/workdir/stm32h7xxcpplib/output/board.o
 .bss._ZZN4mMem11getInstanceEvE3mem
                0x0000000000000000       0x3c /home/tony/workdir/stm32h7xxcpplib/output/board.o
 .group         0x0000000000000000        0x8 /home/tony/workdir/stm32h7xxcpplib/output/mclock.o
 .group         0x0000000000000000        0x8 /home/tony/workdir/stm32h7xxcpplib/output/mclock.o
 .group         0x0000000000000000        0x8 /home/tony/workdir/stm32h7xxcpplib/output/mclock.o
 .group         0x0000000000000000        0x8 /home/tony/workdir/stm32h7xxcpplib/output/mcomponents.o
 .group         0x0000000000000000        0x8 /home/tony/workdir/stm32h7xxcpplib/output/mcomponents.o
 .group         0x0000000000000000        0xc /home/tony/workdir/stm32h7xxcpplib/output/mcomponents.o
 .group         0x0000000000000000        0xc /home/tony/workdir/stm32h7xxcpplib/output/mcomponents.o
 .group         0x0000000000000000        0x8 /home/tony/workdir/stm32h7xxcpplib/output/mcomponents.o
 .group         0x0000000000000000        0xc /home/tony/workdir/stm32h7xxcpplib/output/mcomponents.o
 .group         0x0000000000000000        0xc /home/tony/workdir/stm32h7xxcpplib/output/mcomponents.o
 .group         0x0000000000000000        0xc /home/tony/workdir/stm32h7xxcpplib/output/mcomponents.o
 .group         0x0000000000000000        0xc /home/tony/workdir/stm32h7xxcpplib/output/mcomponents.o
 .group         0x0000000000000000        0x8 /home/tony/workdir/stm32h7xxcpplib/output/mcomponents.o
 .group         0x0000000000000000        0x8 /home/tony/workdir/stm32h7xxcpplib/output/mcomponents.o
 .group         0x0000000000000000        0x8 /home/tony/workdir/stm32h7xxcpplib/output/mcomponents.o
 .group         0x0000000000000000        0x8 /home/tony/workdir/stm32h7xxcpplib/output/mcomponents.o
 .group         0x0000000000000000        0x8 /home/tony/workdir/stm32h7xxcpplib/output/mcomponents.o
 .group         0x0000000000000000        0x8 /home/tony/workdir/stm32h7xxcpplib/output/mcomponents.o
 .group         0x0000000000000000        0x8 /home/tony/workdir/stm32h7xxcpplib/output/mcomponents.o
 .group         0x0000000000000000        0x8 /home/tony/workdir/stm32h7xxcpplib/output/mcomponents.o
 .text._ZN9mScheduleD2Ev
                0x0000000000000000        0x2 /home/tony/workdir/stm32h7xxcpplib/output/mcomponents.o
 .text._ZN6mClockD2Ev
                0x0000000000000000        0x2 /home/tony/workdir/stm32h7xxcpplib/output/mcomponents.o
 .text._ZNSt14_Function_baseD2Ev
                0x0000000000000000       0x12 /home/tony/workdir/stm32h7xxcpplib/output/mcomponents.o
 .bss._ZGVZN6mClock11getInstanceEvE3clk
                0x0000000000000000        0x4 /home/tony/workdir/stm32h7xxcpplib/output/mcomponents.o
 .bss._ZZN6mClock11getInstanceEvE3clk
                0x0000000000000000        0x8 /home/tony/workdir/stm32h7xxcpplib/output/mcomponents.o
 .bss._ZGVZN9mSchedule11getInstanceEvE3sch
                0x0000000000000000        0x4 /home/tony/workdir/stm32h7xxcpplib/output/mcomponents.o
 .bss._ZZN9mSchedule11getInstanceEvE3sch
                0x0000000000000000       0x58 /home/tony/workdir/stm32h7xxcpplib/output/mcomponents.o
 .group         0x0000000000000000        0x8 /home/tony/workdir/stm32h7xxcpplib/output/midle.o
 .group         0x0000000000000000        0x8 /home/tony/workdir/stm32h7xxcpplib/output/midle.o
 .group         0x0000000000000000        0xc /home/tony/workdir/stm32h7xxcpplib/output/midle.o
 .group         0x0000000000000000        0x8 /home/tony/workdir/stm32h7xxcpplib/output/midle.o
 .group         0x0000000000000000        0x8 /home/tony/workdir/stm32h7xxcpplib/output/midle.o
 .group         0x0000000000000000        0x8 /home/tony/workdir/stm32h7xxcpplib/output/midle.o
 .group         0x0000000000000000        0x8 /home/tony/workdir/stm32h7xxcpplib/output/midle.o
 .group         0x0000000000000000        0x8 /home/tony/workdir/stm32h7xxcpplib/output/midle.o
 .text._ZN9mScheduleD2Ev
                0x0000000000000000        0x2 /home/tony/workdir/stm32h7xxcpplib/output/midle.o
 .text._ZN9mSchedule11getInstanceEv
                0x0000000000000000       0x60 /home/tony/workdir/stm32h7xxcpplib/output/midle.o
 .text._ZNSt14_Function_baseD2Ev
                0x0000000000000000       0x12 /home/tony/workdir/stm32h7xxcpplib/output/midle.o
 .bss._ZGVZN9mSchedule11getInstanceEvE3sch
                0x0000000000000000        0x4 /home/tony/workdir/stm32h7xxcpplib/output/midle.o
 .bss._ZZN9mSchedule11getInstanceEvE3sch
                0x0000000000000000       0x58 /home/tony/workdir/stm32h7xxcpplib/output/midle.o
 .group         0x0000000000000000        0x8 /home/tony/workdir/stm32h7xxcpplib/output/mipc.o
 .group         0x0000000000000000        0x8 /home/tony/workdir/stm32h7xxcpplib/output/mipc.o
 .group         0x0000000000000000        0xc /home/tony/workdir/stm32h7xxcpplib/output/mipc.o
 .group         0x0000000000000000        0xc /home/tony/workdir/stm32h7xxcpplib/output/mipc.o
 .group         0x0000000000000000        0x8 /home/tony/workdir/stm32h7xxcpplib/output/mipc.o
 .group         0x0000000000000000        0x8 /home/tony/workdir/stm32h7xxcpplib/output/mipc.o
 .group         0x0000000000000000        0x8 /home/tony/workdir/stm32h7xxcpplib/output/mipc.o
 .group         0x0000000000000000        0x8 /home/tony/workdir/stm32h7xxcpplib/output/mipc.o
 .text._ZN9mScheduleD2Ev
                0x0000000000000000        0x2 /home/tony/workdir/stm32h7xxcpplib/output/mipc.o
 .text._ZN7mObjectD2Ev
                0x0000000000000000        0x2 /home/tony/workdir/stm32h7xxcpplib/output/mipc.o
 .text._ZN9mSchedule11getInstanceEv
                0x0000000000000000       0x60 /home/tony/workdir/stm32h7xxcpplib/output/mipc.o
 .bss._ZGVZN7mObject11getInstanceEvE3obj
                0x0000000000000000        0x4 /home/tony/workdir/stm32h7xxcpplib/output/mipc.o
 .bss._ZZN7mObject11getInstanceEvE3obj
                0x0000000000000000       0x24 /home/tony/workdir/stm32h7xxcpplib/output/mipc.o
 .bss._ZGVZN9mSchedule11getInstanceEvE3sch
                0x0000000000000000        0x4 /home/tony/workdir/stm32h7xxcpplib/output/mipc.o
 .bss._ZZN9mSchedule11getInstanceEvE3sch
                0x0000000000000000       0x58 /home/tony/workdir/stm32h7xxcpplib/output/mipc.o
 .group         0x0000000000000000        0x8 /home/tony/workdir/stm32h7xxcpplib/output/mmem.o
 .group         0x0000000000000000        0xc /home/tony/workdir/stm32h7xxcpplib/output/mmem.o
 .group         0x0000000000000000        0x8 /home/tony/workdir/stm32h7xxcpplib/output/mmem.o
 .group         0x0000000000000000        0x8 /home/tony/workdir/stm32h7xxcpplib/output/mmem.o
 .text._ZN4mMemD2Ev
                0x0000000000000000        0x2 /home/tony/workdir/stm32h7xxcpplib/output/mmem.o
 .text._ZN4mMem11getInstanceEv
                0x0000000000000000       0x54 /home/tony/workdir/stm32h7xxcpplib/output/mmem.o
 .bss._ZGVZN4mMem11getInstanceEvE3mem
                0x0000000000000000        0x4 /home/tony/workdir/stm32h7xxcpplib/output/mmem.o
 .bss._ZZN4mMem11getInstanceEvE3mem
                0x0000000000000000       0x3c /home/tony/workdir/stm32h7xxcpplib/output/mmem.o
 .group         0x0000000000000000        0x8 /home/tony/workdir/stm32h7xxcpplib/output/mobject.o
 .group         0x0000000000000000        0xc /home/tony/workdir/stm32h7xxcpplib/output/mobject.o
 .group         0x0000000000000000        0x8 /home/tony/workdir/stm32h7xxcpplib/output/mobject.o
 .group         0x0000000000000000        0x8 /home/tony/workdir/stm32h7xxcpplib/output/mobject.o
 .text._ZN9mScheduleD2Ev
                0x0000000000000000        0x2 /home/tony/workdir/stm32h7xxcpplib/output/mobject.o
 .text._ZN9mSchedule11getInstanceEv
                0x0000000000000000       0x60 /home/tony/workdir/stm32h7xxcpplib/output/mobject.o
 .bss._ZGVZN9mSchedule11getInstanceEvE3sch
                0x0000000000000000        0x4 /home/tony/workdir/stm32h7xxcpplib/output/mobject.o
 .bss._ZZN9mSchedule11getInstanceEvE3sch
                0x0000000000000000       0x58 /home/tony/workdir/stm32h7xxcpplib/output/mobject.o
 .group         0x0000000000000000        0x8 /home/tony/workdir/stm32h7xxcpplib/output/mscheduler.o
 .group         0x0000000000000000        0x8 /home/tony/workdir/stm32h7xxcpplib/output/mscheduler.o
 .group         0x0000000000000000        0xc /home/tony/workdir/stm32h7xxcpplib/output/mscheduler.o
 .group         0x0000000000000000        0xc /home/tony/workdir/stm32h7xxcpplib/output/mscheduler.o
 .group         0x0000000000000000        0x8 /home/tony/workdir/stm32h7xxcpplib/output/mscheduler.o
 .group         0x0000000000000000        0x8 /home/tony/workdir/stm32h7xxcpplib/output/mscheduler.o
 .group         0x0000000000000000        0x8 /home/tony/workdir/stm32h7xxcpplib/output/mscheduler.o
 .group         0x0000000000000000        0x8 /home/tony/workdir/stm32h7xxcpplib/output/mscheduler.o
 .text._ZN4mIrqD2Ev
                0x0000000000000000        0x2 /home/tony/workdir/stm32h7xxcpplib/output/mscheduler.o
 .text._ZN4mIrq11getInstanceEv
                0x0000000000000000       0x40 /home/tony/workdir/stm32h7xxcpplib/output/mscheduler.o
 .bss._ZGVZN4mIrq11getInstanceEvE3irq
                0x0000000000000000        0x4 /home/tony/workdir/stm32h7xxcpplib/output/mscheduler.o
 .bss._ZZN4mIrq11getInstanceEvE3irq
                0x0000000000000000        0x1 /home/tony/workdir/stm32h7xxcpplib/output/mscheduler.o
 .group         0x0000000000000000        0x8 /home/tony/workdir/stm32h7xxcpplib/output/mthread.o
 .group         0x0000000000000000        0x8 /home/tony/workdir/stm32h7xxcpplib/output/mthread.o
 .group         0x0000000000000000        0x8 /home/tony/workdir/stm32h7xxcpplib/output/mthread.o
 .group         0x0000000000000000        0xc /home/tony/workdir/stm32h7xxcpplib/output/mthread.o
 .group         0x0000000000000000        0xc /home/tony/workdir/stm32h7xxcpplib/output/mthread.o
 .group         0x0000000000000000        0xc /home/tony/workdir/stm32h7xxcpplib/output/mthread.o
 .group         0x0000000000000000        0x8 /home/tony/workdir/stm32h7xxcpplib/output/mthread.o
 .group         0x0000000000000000        0x8 /home/tony/workdir/stm32h7xxcpplib/output/mthread.o
 .group         0x0000000000000000        0x8 /home/tony/workdir/stm32h7xxcpplib/output/mthread.o
 .group         0x0000000000000000        0x8 /home/tony/workdir/stm32h7xxcpplib/output/mthread.o
 .group         0x0000000000000000        0x8 /home/tony/workdir/stm32h7xxcpplib/output/mthread.o
 .group         0x0000000000000000        0x8 /home/tony/workdir/stm32h7xxcpplib/output/mthread.o
 .group         0x0000000000000000        0x8 /home/tony/workdir/stm32h7xxcpplib/output/mthread.o
 .text._ZN9mScheduleD2Ev
                0x0000000000000000        0x2 /home/tony/workdir/stm32h7xxcpplib/output/mthread.o
 .text._ZN7mObjectD2Ev
                0x0000000000000000        0x2 /home/tony/workdir/stm32h7xxcpplib/output/mthread.o
 .text._ZN6mClockD2Ev
                0x0000000000000000        0x2 /home/tony/workdir/stm32h7xxcpplib/output/mthread.o
 .text._ZN9mSchedule11getInstanceEv
                0x0000000000000000       0x60 /home/tony/workdir/stm32h7xxcpplib/output/mthread.o
 .text._ZN7mObject11getInstanceEv
                0x0000000000000000       0x58 /home/tony/workdir/stm32h7xxcpplib/output/mthread.o
 .text._ZN6mClock11getInstanceEv
                0x0000000000000000       0x40 /home/tony/workdir/stm32h7xxcpplib/output/mthread.o
 .text._ZNSt14_Function_baseD2Ev
                0x0000000000000000       0x12 /home/tony/workdir/stm32h7xxcpplib/output/mthread.o
 .bss._ZGVZN6mClock11getInstanceEvE3clk
                0x0000000000000000        0x4 /home/tony/workdir/stm32h7xxcpplib/output/mthread.o
 .bss._ZZN6mClock11getInstanceEvE3clk
                0x0000000000000000        0x8 /home/tony/workdir/stm32h7xxcpplib/output/mthread.o
 .bss._ZGVZN7mObject11getInstanceEvE3obj
                0x0000000000000000        0x4 /home/tony/workdir/stm32h7xxcpplib/output/mthread.o
 .bss._ZZN7mObject11getInstanceEvE3obj
                0x0000000000000000       0x24 /home/tony/workdir/stm32h7xxcpplib/output/mthread.o
 .bss._ZGVZN9mSchedule11getInstanceEvE3sch
                0x0000000000000000        0x4 /home/tony/workdir/stm32h7xxcpplib/output/mthread.o
 .bss._ZZN9mSchedule11getInstanceEvE3sch
                0x0000000000000000       0x58 /home/tony/workdir/stm32h7xxcpplib/output/mthread.o
 .group         0x0000000000000000        0x8 /home/tony/workdir/stm32h7xxcpplib/output/mtimer.o
 .group         0x0000000000000000        0x8 /home/tony/workdir/stm32h7xxcpplib/output/mtimer.o
 .group         0x0000000000000000        0xc /home/tony/workdir/stm32h7xxcpplib/output/mtimer.o
 .group         0x0000000000000000        0xc /home/tony/workdir/stm32h7xxcpplib/output/mtimer.o
 .group         0x0000000000000000        0x8 /home/tony/workdir/stm32h7xxcpplib/output/mtimer.o
 .group         0x0000000000000000        0x8 /home/tony/workdir/stm32h7xxcpplib/output/mtimer.o
 .group         0x0000000000000000        0x8 /home/tony/workdir/stm32h7xxcpplib/output/mtimer.o
 .group         0x0000000000000000        0x8 /home/tony/workdir/stm32h7xxcpplib/output/mtimer.o
 .group         0x0000000000000000        0x8 /home/tony/workdir/stm32h7xxcpplib/output/mtimer.o
 .group         0x0000000000000000        0x8 /home/tony/workdir/stm32h7xxcpplib/output/mtimer.o
 .text._ZN7mObjectD2Ev
                0x0000000000000000        0x2 /home/tony/workdir/stm32h7xxcpplib/output/mtimer.o
 .text._ZN6mClockD2Ev
                0x0000000000000000        0x2 /home/tony/workdir/stm32h7xxcpplib/output/mtimer.o
 .text._ZN7mObject11getInstanceEv
                0x0000000000000000       0x58 /home/tony/workdir/stm32h7xxcpplib/output/mtimer.o
 .text._ZN6mClock11getInstanceEv
                0x0000000000000000       0x40 /home/tony/workdir/stm32h7xxcpplib/output/mtimer.o
 .text._ZNSt14_Function_baseD2Ev
                0x0000000000000000       0x12 /home/tony/workdir/stm32h7xxcpplib/output/mtimer.o
 .bss._ZGVZN6mClock11getInstanceEvE3clk
                0x0000000000000000        0x4 /home/tony/workdir/stm32h7xxcpplib/output/mtimer.o
 .bss._ZZN6mClock11getInstanceEvE3clk
                0x0000000000000000        0x8 /home/tony/workdir/stm32h7xxcpplib/output/mtimer.o
 .bss._ZGVZN7mObject11getInstanceEvE3obj
                0x0000000000000000        0x4 /home/tony/workdir/stm32h7xxcpplib/output/mtimer.o
 .bss._ZZN7mObject11getInstanceEvE3obj
                0x0000000000000000       0x24 /home/tony/workdir/stm32h7xxcpplib/output/mtimer.o
 .group         0x0000000000000000        0x8 /home/tony/workdir/stm32h7xxcpplib/output/systeminit.o
 .group         0x0000000000000000        0x8 /home/tony/workdir/stm32h7xxcpplib/output/systeminit.o
 .group         0x0000000000000000        0x8 /home/tony/workdir/stm32h7xxcpplib/output/systeminit.o
 .group         0x0000000000000000        0x8 /home/tony/workdir/stm32h7xxcpplib/output/systeminit.o
 .group         0x0000000000000000       0x18 /home/tony/workdir/stm32h7xxcpplib/output/systeminit.o
 .group         0x0000000000000000        0xc /home/tony/workdir/stm32h7xxcpplib/output/systeminit.o
 .group         0x0000000000000000        0x8 /home/tony/workdir/stm32h7xxcpplib/output/systeminit.o
 .group         0x0000000000000000        0xc /home/tony/workdir/stm32h7xxcpplib/output/systeminit.o
 .group         0x0000000000000000        0xc /home/tony/workdir/stm32h7xxcpplib/output/systeminit.o
 .group         0x0000000000000000        0xc /home/tony/workdir/stm32h7xxcpplib/output/systeminit.o
 .group         0x0000000000000000        0x8 /home/tony/workdir/stm32h7xxcpplib/output/systeminit.o
 .group         0x0000000000000000        0x8 /home/tony/workdir/stm32h7xxcpplib/output/systeminit.o
 .group         0x0000000000000000        0x8 /home/tony/workdir/stm32h7xxcpplib/output/systeminit.o
 .group         0x0000000000000000        0x8 /home/tony/workdir/stm32h7xxcpplib/output/systeminit.o
 .group         0x0000000000000000        0x8 /home/tony/workdir/stm32h7xxcpplib/output/systeminit.o
 .group         0x0000000000000000        0x8 /home/tony/workdir/stm32h7xxcpplib/output/systeminit.o
 .text._ZN10RCCControlD2Ev
                0x0000000000000000        0x2 /home/tony/workdir/stm32h7xxcpplib/output/systeminit.o
 .text._ZNSt14_Function_baseD2Ev
                0x0000000000000000       0x12 /home/tony/workdir/stm32h7xxcpplib/output/systeminit.o
 .bss._ZGVZN10RCCControl11getInstanceEvE4rcc_
                0x0000000000000000        0x4 /home/tony/workdir/stm32h7xxcpplib/output/systeminit.o
 .bss._ZZN10RCCControl11getInstanceEvE4rcc_
                0x0000000000000000        0x1 /home/tony/workdir/stm32h7xxcpplib/output/systeminit.o

Memory Configuration

Name             Origin             Length             Attributes
DTCMRAM          0x0000000020000000 0x0000000000020000 xrw
ITCMRAM          0x0000000000000000 0x0000000000010000 xrw
RAM_D1           0x0000000024000000 0x0000000000080000 xrw
RAM_D2           0x0000000030000000 0x0000000000048000 xrw
RAM_D3           0x0000000038000000 0x0000000000010000 xrw
FLASH            0x0000000008000000 0x0000000000200000 xr
*default*        0x0000000000000000 0xffffffffffffffff

Linker script and memory map

LOAD /opt/gcc-arm-none-eabi-10.3-2021.10/bin/../lib/gcc/arm-none-eabi/10.3.1/thumb/v7e-m+fp/hard/crti.o
LOAD /opt/gcc-arm-none-eabi-10.3-2021.10/bin/../lib/gcc/arm-none-eabi/10.3.1/thumb/v7e-m+fp/hard/crtbegin.o
LOAD /opt/gcc-arm-none-eabi-10.3-2021.10/bin/../lib/gcc/arm-none-eabi/10.3.1/../../../../arm-none-eabi/lib/thumb/v7e-m+fp/hard/crt0.o
LOAD /home/tony/workdir/stm32h7xxcpplib/output/startup_stm32h750xx.o
LOAD /home/tony/workdir/stm32h7xxcpplib/output/context_gcc.o
LOAD /home/tony/workdir/stm32h7xxcpplib/output/isrcommon.o
LOAD /home/tony/workdir/stm32h7xxcpplib/output/w25qxx.o
LOAD /home/tony/workdir/stm32h7xxcpplib/output/sdram.o
LOAD /home/tony/workdir/stm32h7xxcpplib/output/stm32h7xx_it.o
LOAD /home/tony/workdir/stm32h7xxcpplib/output/system_stm32h7xx.o
LOAD /home/tony/workdir/stm32h7xxcpplib/output/printfremap.o
LOAD /home/tony/workdir/stm32h7xxcpplib/output/main.o
LOAD /home/tony/workdir/stm32h7xxcpplib/output/board.o
LOAD /home/tony/workdir/stm32h7xxcpplib/output/cpuport.o
LOAD /home/tony/workdir/stm32h7xxcpplib/output/mclock.o
LOAD /home/tony/workdir/stm32h7xxcpplib/output/mcomponents.o
LOAD /home/tony/workdir/stm32h7xxcpplib/output/midle.o
LOAD /home/tony/workdir/stm32h7xxcpplib/output/mipc.o
LOAD /home/tony/workdir/stm32h7xxcpplib/output/mirq.o
LOAD /home/tony/workdir/stm32h7xxcpplib/output/mkservice.o
LOAD /home/tony/workdir/stm32h7xxcpplib/output/mmem.o
LOAD /home/tony/workdir/stm32h7xxcpplib/output/mobject.o
LOAD /home/tony/workdir/stm32h7xxcpplib/output/mscheduler.o
LOAD /home/tony/workdir/stm32h7xxcpplib/output/mthread.o
LOAD /home/tony/workdir/stm32h7xxcpplib/output/mtimer.o
LOAD /home/tony/workdir/stm32h7xxcpplib/output/delay.o
LOAD /home/tony/workdir/stm32h7xxcpplib/output/systeminit.o
LOAD /opt/gcc-arm-none-eabi-10.3-2021.10/bin/../lib/gcc/arm-none-eabi/10.3.1/../../../../arm-none-eabi/lib/thumb/v7e-m+fp/hard/libc_nano.a
LOAD /opt/gcc-arm-none-eabi-10.3-2021.10/bin/../lib/gcc/arm-none-eabi/10.3.1/../../../../arm-none-eabi/lib/thumb/v7e-m+fp/hard/libm.a
LOAD /opt/gcc-arm-none-eabi-10.3-2021.10/bin/../lib/gcc/arm-none-eabi/10.3.1/../../../../arm-none-eabi/lib/thumb/v7e-m+fp/hard/libstdc++_nano.a
LOAD /opt/gcc-arm-none-eabi-10.3-2021.10/bin/../lib/gcc/arm-none-eabi/10.3.1/../../../../arm-none-eabi/lib/thumb/v7e-m+fp/hard/libnosys.a
START GROUP
LOAD /opt/gcc-arm-none-eabi-10.3-2021.10/bin/../lib/gcc/arm-none-eabi/10.3.1/thumb/v7e-m+fp/hard/libgcc.a
LOAD /opt/gcc-arm-none-eabi-10.3-2021.10/bin/../lib/gcc/arm-none-eabi/10.3.1/../../../../arm-none-eabi/lib/thumb/v7e-m+fp/hard/libg_nano.a
LOAD /opt/gcc-arm-none-eabi-10.3-2021.10/bin/../lib/gcc/arm-none-eabi/10.3.1/../../../../arm-none-eabi/lib/thumb/v7e-m+fp/hard/libc_nano.a
END GROUP
START GROUP
LOAD /opt/gcc-arm-none-eabi-10.3-2021.10/bin/../lib/gcc/arm-none-eabi/10.3.1/thumb/v7e-m+fp/hard/libgcc.a
LOAD /opt/gcc-arm-none-eabi-10.3-2021.10/bin/../lib/gcc/arm-none-eabi/10.3.1/../../../../arm-none-eabi/lib/thumb/v7e-m+fp/hard/libc_nano.a
LOAD /opt/gcc-arm-none-eabi-10.3-2021.10/bin/../lib/gcc/arm-none-eabi/10.3.1/../../../../arm-none-eabi/lib/thumb/v7e-m+fp/hard/libnosys.a
END GROUP
START GROUP
LOAD /opt/gcc-arm-none-eabi-10.3-2021.10/bin/../lib/gcc/arm-none-eabi/10.3.1/thumb/v7e-m+fp/hard/libgcc.a
LOAD /opt/gcc-arm-none-eabi-10.3-2021.10/bin/../lib/gcc/arm-none-eabi/10.3.1/../../../../arm-none-eabi/lib/thumb/v7e-m+fp/hard/libc_nano.a
LOAD /opt/gcc-arm-none-eabi-10.3-2021.10/bin/../lib/gcc/arm-none-eabi/10.3.1/../../../../arm-none-eabi/lib/thumb/v7e-m+fp/hard/libnosys.a
END GROUP
LOAD /opt/gcc-arm-none-eabi-10.3-2021.10/bin/../lib/gcc/arm-none-eabi/10.3.1/thumb/v7e-m+fp/hard/crtend.o
LOAD /opt/gcc-arm-none-eabi-10.3-2021.10/bin/../lib/gcc/arm-none-eabi/10.3.1/thumb/v7e-m+fp/hard/crtn.o
                0x0000000024080000                _estack = (ORIGIN (RAM_D1) + LENGTH (RAM_D1))
                0x0000000000000200                _Min_Heap_Size = 0x200
                0x0000000000000400                _Min_Stack_Size = 0x400

.isr_vector     0x0000000008000000      0x298
                0x0000000008000000                . = ALIGN (0x4)
 *(.isr_vector)
 .isr_vector    0x0000000008000000      0x298 /home/tony/workdir/stm32h7xxcpplib/output/startup_stm32h750xx.o
                0x0000000008000000                g_pfnVectors
                0x0000000008000298                . = ALIGN (0x4)

.text           0x00000000080002a0     0x6e30
                0x00000000080002a0                . = ALIGN (0x4)
 *(.text)
 .text          0x00000000080002a0        0x0 /opt/gcc-arm-none-eabi-10.3-2021.10/bin/../lib/gcc/arm-none-eabi/10.3.1/thumb/v7e-m+fp/hard/crti.o
 .text          0x00000000080002a0       0x40 /opt/gcc-arm-none-eabi-10.3-2021.10/bin/../lib/gcc/arm-none-eabi/10.3.1/thumb/v7e-m+fp/hard/crtbegin.o
 .text          0x00000000080002e0       0x7c /opt/gcc-arm-none-eabi-10.3-2021.10/bin/../lib/gcc/arm-none-eabi/10.3.1/../../../../arm-none-eabi/lib/thumb/v7e-m+fp/hard/crt0.o
                0x00000000080002e0                _stack_init
                0x00000000080002e8                _mainCRTStartup
                0x00000000080002e8                _start
 .text          0x000000000800035c       0x14 /home/tony/workdir/stm32h7xxcpplib/output/startup_stm32h750xx.o
 .text          0x0000000008000370      0x134 /home/tony/workdir/stm32h7xxcpplib/output/context_gcc.o
                0x0000000008000370                hwInterruptDisable
                0x0000000008000378                hwInterruptEnable
                0x000000000800037e                hwContextSwitch
                0x000000000800037e                hwContextSwitchInterrupt
                0x000000000800039e                PendSV_Handler
                0x000000000800040a                hwContextSwitchTo
                0x0000000008000452                HardFault_Handler
 .text          0x00000000080004a4        0x0 /home/tony/workdir/stm32h7xxcpplib/output/isrcommon.o
 .text          0x00000000080004a4        0x0 /home/tony/workdir/stm32h7xxcpplib/output/w25qxx.o
 .text          0x00000000080004a4        0x0 /home/tony/workdir/stm32h7xxcpplib/output/sdram.o
 .text          0x00000000080004a4        0x0 /home/tony/workdir/stm32h7xxcpplib/output/stm32h7xx_it.o
 .text          0x00000000080004a4        0x0 /home/tony/workdir/stm32h7xxcpplib/output/system_stm32h7xx.o
 .text          0x00000000080004a4        0x0 /home/tony/workdir/stm32h7xxcpplib/output/printfremap.o
 .text          0x00000000080004a4        0x0 /home/tony/workdir/stm32h7xxcpplib/output/main.o
 .text          0x00000000080004a4        0x0 /home/tony/workdir/stm32h7xxcpplib/output/board.o
 .text          0x00000000080004a4        0x0 /home/tony/workdir/stm32h7xxcpplib/output/cpuport.o
 .text          0x00000000080004a4        0x0 /home/tony/workdir/stm32h7xxcpplib/output/mclock.o
 .text          0x00000000080004a4        0x0 /home/tony/workdir/stm32h7xxcpplib/output/mcomponents.o
 .text          0x00000000080004a4        0x0 /home/tony/workdir/stm32h7xxcpplib/output/midle.o
 .text          0x00000000080004a4        0x0 /home/tony/workdir/stm32h7xxcpplib/output/mipc.o
 .text          0x00000000080004a4        0x0 /home/tony/workdir/stm32h7xxcpplib/output/mirq.o
 .text          0x00000000080004a4        0x0 /home/tony/workdir/stm32h7xxcpplib/output/mkservice.o
 .text          0x00000000080004a4        0x0 /home/tony/workdir/stm32h7xxcpplib/output/mmem.o
 .text          0x00000000080004a4        0x0 /home/tony/workdir/stm32h7xxcpplib/output/mobject.o
 .text          0x00000000080004a4        0x0 /home/tony/workdir/stm32h7xxcpplib/output/mscheduler.o
 .text          0x00000000080004a4        0x0 /home/tony/workdir/stm32h7xxcpplib/output/mthread.o
 .text          0x00000000080004a4        0x0 /home/tony/workdir/stm32h7xxcpplib/output/mtimer.o
 .text          0x00000000080004a4        0x0 /home/tony/workdir/stm32h7xxcpplib/output/delay.o
 .text          0x00000000080004a4        0x0 /home/tony/workdir/stm32h7xxcpplib/output/systeminit.o
 .text          0x00000000080004a4        0x0 /opt/gcc-arm-none-eabi-10.3-2021.10/bin/../lib/gcc/arm-none-eabi/10.3.1/../../../../arm-none-eabi/lib/thumb/v7e-m+fp/hard/libc_nano.a(lib_a-aeabi_atexit.o)
 .text          0x00000000080004a4        0x0 /opt/gcc-arm-none-eabi-10.3-2021.10/bin/../lib/gcc/arm-none-eabi/10.3.1/../../../../arm-none-eabi/lib/thumb/v7e-m+fp/hard/libc_nano.a(lib_a-cxa_atexit.o)
 .text          0x00000000080004a4        0x0 /opt/gcc-arm-none-eabi-10.3-2021.10/bin/../lib/gcc/arm-none-eabi/10.3.1/../../../../arm-none-eabi/lib/thumb/v7e-m+fp/hard/libc_nano.a(lib_a-exit.o)
 .text          0x00000000080004a4        0x0 /opt/gcc-arm-none-eabi-10.3-2021.10/bin/../lib/gcc/arm-none-eabi/10.3.1/../../../../arm-none-eabi/lib/thumb/v7e-m+fp/hard/libc_nano.a(lib_a-impure.o)
 .text          0x00000000080004a4        0x0 /opt/gcc-arm-none-eabi-10.3-2021.10/bin/../lib/gcc/arm-none-eabi/10.3.1/../../../../arm-none-eabi/lib/thumb/v7e-m+fp/hard/libc_nano.a(lib_a-init.o)
 .text          0x00000000080004a4        0x0 /opt/gcc-arm-none-eabi-10.3-2021.10/bin/../lib/gcc/arm-none-eabi/10.3.1/../../../../arm-none-eabi/lib/thumb/v7e-m+fp/hard/libc_nano.a(lib_a-memcpy-stub.o)
 .text          0x00000000080004a4        0x0 /opt/gcc-arm-none-eabi-10.3-2021.10/bin/../lib/gcc/arm-none-eabi/10.3.1/../../../../arm-none-eabi/lib/thumb/v7e-m+fp/hard/libc_nano.a(lib_a-memset.o)
 .text          0x00000000080004a4        0x0 /opt/gcc-arm-none-eabi-10.3-2021.10/bin/../lib/gcc/arm-none-eabi/10.3.1/../../../../arm-none-eabi/lib/thumb/v7e-m+fp/hard/libc_nano.a(lib_a-on_exit_args.o)
 .text          0x00000000080004a4        0x0 /opt/gcc-arm-none-eabi-10.3-2021.10/bin/../lib/gcc/arm-none-eabi/10.3.1/../../../../arm-none-eabi/lib/thumb/v7e-m+fp/hard/libc_nano.a(lib_a-printf.o)
 .text          0x00000000080004a4        0x0 /opt/gcc-arm-none-eabi-10.3-2021.10/bin/../lib/gcc/arm-none-eabi/10.3.1/../../../../arm-none-eabi/lib/thumb/v7e-m+fp/hard/libc_nano.a(lib_a-strncmp.o)
 .text          0x00000000080004a4        0x0 /opt/gcc-arm-none-eabi-10.3-2021.10/bin/../lib/gcc/arm-none-eabi/10.3.1/../../../../arm-none-eabi/lib/thumb/v7e-m+fp/hard/libc_nano.a(lib_a-strncpy.o)
 .text          0x00000000080004a4        0x0 /opt/gcc-arm-none-eabi-10.3-2021.10/bin/../lib/gcc/arm-none-eabi/10.3.1/../../../../arm-none-eabi/lib/thumb/v7e-m+fp/hard/libc_nano.a(lib_a-findfp.o)
 .text          0x00000000080004a4        0x0 /opt/gcc-arm-none-eabi-10.3-2021.10/bin/../lib/gcc/arm-none-eabi/10.3.1/../../../../arm-none-eabi/lib/thumb/v7e-m+fp/hard/libc_nano.a(lib_a-fwalk.o)
 .text          0x00000000080004a4        0x0 /opt/gcc-arm-none-eabi-10.3-2021.10/bin/../lib/gcc/arm-none-eabi/10.3.1/../../../../arm-none-eabi/lib/thumb/v7e-m+fp/hard/libc_nano.a(lib_a-lock.o)
 .text          0x00000000080004a4        0x0 /opt/gcc-arm-none-eabi-10.3-2021.10/bin/../lib/gcc/arm-none-eabi/10.3.1/../../../../arm-none-eabi/lib/thumb/v7e-m+fp/hard/libc_nano.a(lib_a-nano-mallocr.o)
 .text          0x00000000080004a4        0x0 /opt/gcc-arm-none-eabi-10.3-2021.10/bin/../lib/gcc/arm-none-eabi/10.3.1/../../../../arm-none-eabi/lib/thumb/v7e-m+fp/hard/libc_nano.a(lib_a-nano-vfprintf.o)
 .text          0x00000000080004a4        0x0 /opt/gcc-arm-none-eabi-10.3-2021.10/bin/../lib/gcc/arm-none-eabi/10.3.1/../../../../arm-none-eabi/lib/thumb/v7e-m+fp/hard/libc_nano.a(lib_a-nano-vfprintf_i.o)
 .text          0x00000000080004a4        0x0 /opt/gcc-arm-none-eabi-10.3-2021.10/bin/../lib/gcc/arm-none-eabi/10.3.1/../../../../arm-none-eabi/lib/thumb/v7e-m+fp/hard/libc_nano.a(lib_a-sbrkr.o)
 .text          0x00000000080004a4        0x0 /opt/gcc-arm-none-eabi-10.3-2021.10/bin/../lib/gcc/arm-none-eabi/10.3.1/../../../../arm-none-eabi/lib/thumb/v7e-m+fp/hard/libc_nano.a(lib_a-stdio.o)
 .text          0x00000000080004a4        0x0 /opt/gcc-arm-none-eabi-10.3-2021.10/bin/../lib/gcc/arm-none-eabi/10.3.1/../../../../arm-none-eabi/lib/thumb/v7e-m+fp/hard/libc_nano.a(lib_a-wbuf.o)
 .text          0x00000000080004a4        0x0 /opt/gcc-arm-none-eabi-10.3-2021.10/bin/../lib/gcc/arm-none-eabi/10.3.1/../../../../arm-none-eabi/lib/thumb/v7e-m+fp/hard/libc_nano.a(lib_a-writer.o)
 .text          0x00000000080004a4        0x0 /opt/gcc-arm-none-eabi-10.3-2021.10/bin/../lib/gcc/arm-none-eabi/10.3.1/../../../../arm-none-eabi/lib/thumb/v7e-m+fp/hard/libc_nano.a(lib_a-wsetup.o)
 .text          0x00000000080004a4        0x0 /opt/gcc-arm-none-eabi-10.3-2021.10/bin/../lib/gcc/arm-none-eabi/10.3.1/../../../../arm-none-eabi/lib/thumb/v7e-m+fp/hard/libc_nano.a(lib_a-closer.o)
 .text          0x00000000080004a4        0x0 /opt/gcc-arm-none-eabi-10.3-2021.10/bin/../lib/gcc/arm-none-eabi/10.3.1/../../../../arm-none-eabi/lib/thumb/v7e-m+fp/hard/libc_nano.a(lib_a-fflush.o)
 .text          0x00000000080004a4        0x0 /opt/gcc-arm-none-eabi-10.3-2021.10/bin/../lib/gcc/arm-none-eabi/10.3.1/../../../../arm-none-eabi/lib/thumb/v7e-m+fp/hard/libc_nano.a(lib_a-fvwrite.o)
 .text          0x00000000080004a4        0x0 /opt/gcc-arm-none-eabi-10.3-2021.10/bin/../lib/gcc/arm-none-eabi/10.3.1/../../../../arm-none-eabi/lib/thumb/v7e-m+fp/hard/libc_nano.a(lib_a-lseekr.o)
 .text          0x00000000080004a4        0x0 /opt/gcc-arm-none-eabi-10.3-2021.10/bin/../lib/gcc/arm-none-eabi/10.3.1/../../../../arm-none-eabi/lib/thumb/v7e-m+fp/hard/libc_nano.a(lib_a-makebuf.o)
 *fill*         0x00000000080004a4        0xc 
 .text          0x00000000080004b0       0xa0 /opt/gcc-arm-none-eabi-10.3-2021.10/bin/../lib/gcc/arm-none-eabi/10.3.1/../../../../arm-none-eabi/lib/thumb/v7e-m+fp/hard/libc_nano.a(lib_a-memchr.o)
                0x00000000080004b0                memchr
 .text          0x0000000008000550        0x0 /opt/gcc-arm-none-eabi-10.3-2021.10/bin/../lib/gcc/arm-none-eabi/10.3.1/../../../../arm-none-eabi/lib/thumb/v7e-m+fp/hard/libc_nano.a(lib_a-memmove.o)
 .text          0x0000000008000550        0x0 /opt/gcc-arm-none-eabi-10.3-2021.10/bin/../lib/gcc/arm-none-eabi/10.3.1/../../../../arm-none-eabi/lib/thumb/v7e-m+fp/hard/libc_nano.a(lib_a-mlock.o)
 .text          0x0000000008000550        0x0 /opt/gcc-arm-none-eabi-10.3-2021.10/bin/../lib/gcc/arm-none-eabi/10.3.1/../../../../arm-none-eabi/lib/thumb/v7e-m+fp/hard/libc_nano.a(lib_a-nano-freer.o)
 .text          0x0000000008000550        0x0 /opt/gcc-arm-none-eabi-10.3-2021.10/bin/../lib/gcc/arm-none-eabi/10.3.1/../../../../arm-none-eabi/lib/thumb/v7e-m+fp/hard/libc_nano.a(lib_a-nano-reallocr.o)
 .text          0x0000000008000550        0x0 /opt/gcc-arm-none-eabi-10.3-2021.10/bin/../lib/gcc/arm-none-eabi/10.3.1/../../../../arm-none-eabi/lib/thumb/v7e-m+fp/hard/libc_nano.a(lib_a-readr.o)
 .text          0x0000000008000550        0x0 /opt/gcc-arm-none-eabi-10.3-2021.10/bin/../lib/gcc/arm-none-eabi/10.3.1/../../../../arm-none-eabi/lib/thumb/v7e-m+fp/hard/libc_nano.a(lib_a-reent.o)
 .text          0x0000000008000550        0x0 /opt/gcc-arm-none-eabi-10.3-2021.10/bin/../lib/gcc/arm-none-eabi/10.3.1/../../../../arm-none-eabi/lib/thumb/v7e-m+fp/hard/libc_nano.a(lib_a-fstatr.o)
 .text          0x0000000008000550        0x0 /opt/gcc-arm-none-eabi-10.3-2021.10/bin/../lib/gcc/arm-none-eabi/10.3.1/../../../../arm-none-eabi/lib/thumb/v7e-m+fp/hard/libc_nano.a(lib_a-isattyr.o)
 .text          0x0000000008000550        0x0 /opt/gcc-arm-none-eabi-10.3-2021.10/bin/../lib/gcc/arm-none-eabi/10.3.1/../../../../arm-none-eabi/lib/thumb/v7e-m+fp/hard/libc_nano.a(lib_a-nano-msizer.o)
 .text          0x0000000008000550        0x0 /opt/gcc-arm-none-eabi-10.3-2021.10/bin/../lib/gcc/arm-none-eabi/10.3.1/../../../../arm-none-eabi/lib/thumb/v7e-m+fp/hard/libstdc++_nano.a(guard.o)
 .text          0x0000000008000550        0x0 /opt/gcc-arm-none-eabi-10.3-2021.10/bin/../lib/gcc/arm-none-eabi/10.3.1/../../../../arm-none-eabi/lib/thumb/v7e-m+fp/hard/libnosys.a(close.o)
 .text          0x0000000008000550        0x0 /opt/gcc-arm-none-eabi-10.3-2021.10/bin/../lib/gcc/arm-none-eabi/10.3.1/../../../../arm-none-eabi/lib/thumb/v7e-m+fp/hard/libnosys.a(fstat.o)
 .text          0x0000000008000550        0x0 /opt/gcc-arm-none-eabi-10.3-2021.10/bin/../lib/gcc/arm-none-eabi/10.3.1/../../../../arm-none-eabi/lib/thumb/v7e-m+fp/hard/libnosys.a(isatty.o)
 .text          0x0000000008000550        0x0 /opt/gcc-arm-none-eabi-10.3-2021.10/bin/../lib/gcc/arm-none-eabi/10.3.1/../../../../arm-none-eabi/lib/thumb/v7e-m+fp/hard/libnosys.a(lseek.o)
 .text          0x0000000008000550        0x0 /opt/gcc-arm-none-eabi-10.3-2021.10/bin/../lib/gcc/arm-none-eabi/10.3.1/../../../../arm-none-eabi/lib/thumb/v7e-m+fp/hard/libnosys.a(sbrk.o)
 .text          0x0000000008000550        0x0 /opt/gcc-arm-none-eabi-10.3-2021.10/bin/../lib/gcc/arm-none-eabi/10.3.1/../../../../arm-none-eabi/lib/thumb/v7e-m+fp/hard/libnosys.a(_exit.o)
 .text          0x0000000008000550        0x0 /opt/gcc-arm-none-eabi-10.3-2021.10/bin/../lib/gcc/arm-none-eabi/10.3.1/thumb/v7e-m+fp/hard/crtend.o
 .text          0x0000000008000550        0x0 /opt/gcc-arm-none-eabi-10.3-2021.10/bin/../lib/gcc/arm-none-eabi/10.3.1/thumb/v7e-m+fp/hard/crtn.o
 *(.text*)
 .text.Reset_Handler
                0x0000000008000550       0x50 /home/tony/workdir/stm32h7xxcpplib/output/startup_stm32h750xx.o
                0x0000000008000550                Reset_Handler
 .text.Default_Handler
                0x00000000080005a0        0x2 /home/tony/workdir/stm32h7xxcpplib/output/startup_stm32h750xx.o
                0x00000000080005a0                HASH_RNG_IRQHandler
                0x00000000080005a0                HRTIM1_Master_IRQHandler
                0x00000000080005a0                SPI4_IRQHandler
                0x00000000080005a0                HRTIM1_FLT_IRQHandler
                0x00000000080005a0                JPEG_IRQHandler
                0x00000000080005a0                HRTIM1_TIMD_IRQHandler
                0x00000000080005a0                DFSDM1_FLT1_IRQHandler
                0x00000000080005a0                I2C3_ER_IRQHandler
                0x00000000080005a0                DFSDM1_FLT2_IRQHandler
                0x00000000080005a0                MDMA_IRQHandler
                0x00000000080005a0                HSEM1_IRQHandler
                0x00000000080005a0                I2C2_EV_IRQHandler
                0x00000000080005a0                FPU_IRQHandler
                0x00000000080005a0                OTG_HS_WKUP_IRQHandler
                0x00000000080005a0                FDCAN1_IT1_IRQHandler
                0x00000000080005a0                LTDC_ER_IRQHandler
                0x00000000080005a0                HRTIM1_TIME_IRQHandler
                0x00000000080005a0                SPI1_IRQHandler
                0x00000000080005a0                DCMI_IRQHandler
                0x00000000080005a0                HRTIM1_TIMC_IRQHandler
                0x00000000080005a0                SAI2_IRQHandler
                0x00000000080005a0                DFSDM1_FLT3_IRQHandler
                0x00000000080005a0                CRYP_IRQHandler
                0x00000000080005a0                ADC3_IRQHandler
                0x00000000080005a0                QUADSPI_IRQHandler
                0x00000000080005a0                I2C1_EV_IRQHandler
                0x00000000080005a0                RCC_IRQHandler
                0x00000000080005a0                Default_Handler
                0x00000000080005a0                ECC_IRQHandler
                0x00000000080005a0                CEC_IRQHandler
                0x00000000080005a0                ADC_IRQHandler
                0x00000000080005a0                HRTIM1_TIMA_IRQHandler
                0x00000000080005a0                SPI5_IRQHandler
                0x00000000080005a0                SDMMC1_IRQHandler
                0x00000000080005a0                PVD_AVD_IRQHandler
                0x00000000080005a0                I2C3_EV_IRQHandler
                0x00000000080005a0                LTDC_IRQHandler
                0x00000000080005a0                SAI3_IRQHandler
                0x00000000080005a0                ETH_WKUP_IRQHandler
                0x00000000080005a0                SPDIF_RX_IRQHandler
                0x00000000080005a0                SPI2_IRQHandler
                0x00000000080005a0                OTG_HS_EP1_IN_IRQHandler
                0x00000000080005a0                SVC_Handler
                0x00000000080005a0                CRS_IRQHandler
                0x00000000080005a0                HRTIM1_TIMB_IRQHandler
                0x00000000080005a0                FDCAN2_IT1_IRQHandler
                0x00000000080005a0                ETH_IRQHandler
                0x00000000080005a0                OTG_HS_EP1_OUT_IRQHandler
                0x00000000080005a0                SPI6_IRQHandler
                0x00000000080005a0                MDIOS_IRQHandler
                0x00000000080005a0                I2C4_EV_IRQHandler
                0x00000000080005a0                FDCAN2_IT0_IRQHandler
                0x00000000080005a0                LPUART1_IRQHandler
                0x00000000080005a0                FDCAN1_IT0_IRQHandler
                0x00000000080005a0                OTG_FS_WKUP_IRQHandler
                0x00000000080005a0                OTG_HS_IRQHandler
                0x00000000080005a0                DMA2D_IRQHandler
                0x00000000080005a0                SDMMC2_IRQHandler
                0x00000000080005a0                OTG_FS_EP1_OUT_IRQHandler
                0x00000000080005a0                MDIOS_WKUP_IRQHandler
                0x00000000080005a0                DFSDM1_FLT0_IRQHandler
                0x00000000080005a0                SAI4_IRQHandler
                0x00000000080005a0                I2C2_ER_IRQHandler
                0x00000000080005a0                FLASH_IRQHandler
                0x00000000080005a0                OTG_FS_IRQHandler
                0x00000000080005a0                SPI3_IRQHandler
                0x00000000080005a0                WAKEUP_PIN_IRQHandler
                0x00000000080005a0                OTG_FS_EP1_IN_IRQHandler
                0x00000000080005a0                I2C1_ER_IRQHandler
                0x00000000080005a0                FMC_IRQHandler
                0x00000000080005a0                FDCAN_CAL_IRQHandler
                0x00000000080005a0                SWPMI1_IRQHandler
                0x00000000080005a0                COMP1_IRQHandler
                0x00000000080005a0                I2C4_ER_IRQHandler
                0x00000000080005a0                SAI1_IRQHandler
 *fill*         0x00000000080005a2        0x2 
 .text.registerUsartIsrCb
                0x00000000080005a4       0xa4 /home/tony/workdir/stm32h7xxcpplib/output/isrcommon.o
                0x00000000080005a4                registerUsartIsrCb
 .text.unRegisterUsartIsrCb
                0x0000000008000648       0xb4 /home/tony/workdir/stm32h7xxcpplib/output/isrcommon.o
                0x0000000008000648                unRegisterUsartIsrCb
 .text.usartxIsrCallback
                0x00000000080006fc       0x34 /home/tony/workdir/stm32h7xxcpplib/output/isrcommon.o
                0x00000000080006fc                usartxIsrCallback
 .text.USART1_IRQHandler
                0x0000000008000730        0xc /home/tony/workdir/stm32h7xxcpplib/output/isrcommon.o
                0x0000000008000730                USART1_IRQHandler
 .text.USART2_IRQHandler
                0x000000000800073c        0xc /home/tony/workdir/stm32h7xxcpplib/output/isrcommon.o
                0x000000000800073c                USART2_IRQHandler
 .text.USART3_IRQHandler
                0x0000000008000748        0xc /home/tony/workdir/stm32h7xxcpplib/output/isrcommon.o
                0x0000000008000748                USART3_IRQHandler
 .text.UART4_IRQHandler
                0x0000000008000754        0xc /home/tony/workdir/stm32h7xxcpplib/output/isrcommon.o
                0x0000000008000754                UART4_IRQHandler
 .text.UART5_IRQHandler
                0x0000000008000760        0xc /home/tony/workdir/stm32h7xxcpplib/output/isrcommon.o
                0x0000000008000760                UART5_IRQHandler
 .text.USART6_IRQHandler
                0x000000000800076c        0xc /home/tony/workdir/stm32h7xxcpplib/output/isrcommon.o
                0x000000000800076c                USART6_IRQHandler
 .text.UART7_IRQHandler
                0x0000000008000778        0xc /home/tony/workdir/stm32h7xxcpplib/output/isrcommon.o
                0x0000000008000778                UART7_IRQHandler
 .text.UART8_IRQHandler
                0x0000000008000784        0xc /home/tony/workdir/stm32h7xxcpplib/output/isrcommon.o
                0x0000000008000784                UART8_IRQHandler
 .text.registerGpioIsrCb
                0x0000000008000790       0x20 /home/tony/workdir/stm32h7xxcpplib/output/isrcommon.o
                0x0000000008000790                registerGpioIsrCb
 .text.unRegisterGpioIsrCb
                0x00000000080007b0       0x30 /home/tony/workdir/stm32h7xxcpplib/output/isrcommon.o
                0x00000000080007b0                unRegisterGpioIsrCb
 .text.gpioxIsrCallback
                0x00000000080007e0       0x30 /home/tony/workdir/stm32h7xxcpplib/output/isrcommon.o
                0x00000000080007e0                gpioxIsrCallback
 .text.EXTI0_IRQHandler
                0x0000000008000810       0x1a /home/tony/workdir/stm32h7xxcpplib/output/isrcommon.o
                0x0000000008000810                EXTI0_IRQHandler
 .text.EXTI1_IRQHandler
                0x000000000800082a       0x1a /home/tony/workdir/stm32h7xxcpplib/output/isrcommon.o
                0x000000000800082a                EXTI1_IRQHandler
 .text.EXTI2_IRQHandler
                0x0000000008000844       0x1a /home/tony/workdir/stm32h7xxcpplib/output/isrcommon.o
                0x0000000008000844                EXTI2_IRQHandler
 .text.EXTI3_IRQHandler
                0x000000000800085e       0x1a /home/tony/workdir/stm32h7xxcpplib/output/isrcommon.o
                0x000000000800085e                EXTI3_IRQHandler
 .text.EXTI4_IRQHandler
                0x0000000008000878       0x1a /home/tony/workdir/stm32h7xxcpplib/output/isrcommon.o
                0x0000000008000878                EXTI4_IRQHandler
 .text.EXTI9_5_IRQHandler
                0x0000000008000892       0x66 /home/tony/workdir/stm32h7xxcpplib/output/isrcommon.o
                0x0000000008000892                EXTI9_5_IRQHandler
 .text.EXTI15_10_IRQHandler
                0x00000000080008f8       0x80 /home/tony/workdir/stm32h7xxcpplib/output/isrcommon.o
                0x00000000080008f8                EXTI15_10_IRQHandler
 .text.registerWwdgIsrCb
                0x0000000008000978        0xc /home/tony/workdir/stm32h7xxcpplib/output/isrcommon.o
                0x0000000008000978                registerWwdgIsrCb
 .text.unRegisterWwdgIsrCb
                0x0000000008000984       0x10 /home/tony/workdir/stm32h7xxcpplib/output/isrcommon.o
                0x0000000008000984                unRegisterWwdgIsrCb
 .text.WWDG_IRQHandler
                0x0000000008000994       0x10 /home/tony/workdir/stm32h7xxcpplib/output/isrcommon.o
                0x0000000008000994                WWDG_IRQHandler
 .text.registerTimIsrCb
                0x00000000080009a4      0x124 /home/tony/workdir/stm32h7xxcpplib/output/isrcommon.o
                0x00000000080009a4                registerTimIsrCb
 .text.unRegisterTimIsrCb
                0x0000000008000ac8      0x13c /home/tony/workdir/stm32h7xxcpplib/output/isrcommon.o
                0x0000000008000ac8                unRegisterTimIsrCb
 .text.timxIsrCallback
                0x0000000008000c04       0x30 /home/tony/workdir/stm32h7xxcpplib/output/isrcommon.o
                0x0000000008000c04                timxIsrCallback
 .text.handlerISREvent
                0x0000000008000c34      0x10e /home/tony/workdir/stm32h7xxcpplib/output/isrcommon.o
 *fill*         0x0000000008000d42        0x2 
 .text.TIM1_BRK_IRQHandler
                0x0000000008000d44        0xc /home/tony/workdir/stm32h7xxcpplib/output/isrcommon.o
                0x0000000008000d44                TIM1_BRK_IRQHandler
 .text.TIM1_UP_IRQHandler
                0x0000000008000d50        0x4 /home/tony/workdir/stm32h7xxcpplib/output/isrcommon.o
                0x0000000008000d50                TIM1_UP_IRQHandler
 .text.TIM1_TRG_COM_IRQHandler
                0x0000000008000d54        0x4 /home/tony/workdir/stm32h7xxcpplib/output/isrcommon.o
                0x0000000008000d54                TIM1_TRG_COM_IRQHandler
 .text.TIM1_CC_IRQHandler
                0x0000000008000d58        0x4 /home/tony/workdir/stm32h7xxcpplib/output/isrcommon.o
                0x0000000008000d58                TIM1_CC_IRQHandler
 .text.TIM2_IRQHandler
                0x0000000008000d5c        0x8 /home/tony/workdir/stm32h7xxcpplib/output/isrcommon.o
                0x0000000008000d5c                TIM2_IRQHandler
 .text.TIM3_IRQHandler
                0x0000000008000d64        0xc /home/tony/workdir/stm32h7xxcpplib/output/isrcommon.o
                0x0000000008000d64                TIM3_IRQHandler
 .text.TIM4_IRQHandler
                0x0000000008000d70        0xc /home/tony/workdir/stm32h7xxcpplib/output/isrcommon.o
                0x0000000008000d70                TIM4_IRQHandler
 .text.TIM5_IRQHandler
                0x0000000008000d7c        0xc /home/tony/workdir/stm32h7xxcpplib/output/isrcommon.o
                0x0000000008000d7c                TIM5_IRQHandler
 .text.TIM6_DAC_IRQHandler
                0x0000000008000d88        0xc /home/tony/workdir/stm32h7xxcpplib/output/isrcommon.o
                0x0000000008000d88                TIM6_DAC_IRQHandler
 .text.TIM7_IRQHandler
                0x0000000008000d94        0xc /home/tony/workdir/stm32h7xxcpplib/output/isrcommon.o
                0x0000000008000d94                TIM7_IRQHandler
 .text.TIM8_BRK_TIM12_IRQHandler
                0x0000000008000da0       0x18 /home/tony/workdir/stm32h7xxcpplib/output/isrcommon.o
                0x0000000008000da0                TIM8_BRK_TIM12_IRQHandler
 .text.TIM8_UP_TIM13_IRQHandler
                0x0000000008000db8       0x18 /home/tony/workdir/stm32h7xxcpplib/output/isrcommon.o
                0x0000000008000db8                TIM8_UP_TIM13_IRQHandler
 .text.TIM8_TRG_COM_TIM14_IRQHandler
                0x0000000008000dd0       0x20 /home/tony/workdir/stm32h7xxcpplib/output/isrcommon.o
                0x0000000008000dd0                TIM8_TRG_COM_TIM14_IRQHandler
 .text.TIM8_CC_IRQHandler
                0x0000000008000df0        0xc /home/tony/workdir/stm32h7xxcpplib/output/isrcommon.o
                0x0000000008000df0                TIM8_CC_IRQHandler
 .text.TIM15_IRQHandler
                0x0000000008000dfc        0xc /home/tony/workdir/stm32h7xxcpplib/output/isrcommon.o
                0x0000000008000dfc                TIM15_IRQHandler
 .text.TIM16_IRQHandler
                0x0000000008000e08        0xc /home/tony/workdir/stm32h7xxcpplib/output/isrcommon.o
                0x0000000008000e08                TIM16_IRQHandler
 .text.TIM17_IRQHandler
                0x0000000008000e14        0xc /home/tony/workdir/stm32h7xxcpplib/output/isrcommon.o
                0x0000000008000e14                TIM17_IRQHandler
 .text.registerLPTimIsrCb
                0x0000000008000e20       0x68 /home/tony/workdir/stm32h7xxcpplib/output/isrcommon.o
                0x0000000008000e20                registerLPTimIsrCb
 .text.unRegisterLPTimIsrCb
                0x0000000008000e88       0x74 /home/tony/workdir/stm32h7xxcpplib/output/isrcommon.o
                0x0000000008000e88                unRegisterLPTimIsrCb
 .text.lptimxIsrCallback
                0x0000000008000efc       0x30 /home/tony/workdir/stm32h7xxcpplib/output/isrcommon.o
                0x0000000008000efc                lptimxIsrCallback
 .text.lptimHandlerISREvent
                0x0000000008000f2c       0xcc /home/tony/workdir/stm32h7xxcpplib/output/isrcommon.o
                0x0000000008000f2c                lptimHandlerISREvent
 .text.LPTIM1_IRQHandler
                0x0000000008000ff8        0xc /home/tony/workdir/stm32h7xxcpplib/output/isrcommon.o
                0x0000000008000ff8                LPTIM1_IRQHandler
 .text.LPTIM2_IRQHandler
                0x0000000008001004        0xc /home/tony/workdir/stm32h7xxcpplib/output/isrcommon.o
                0x0000000008001004                LPTIM2_IRQHandler
 .text.LPTIM3_IRQHandler
                0x0000000008001010        0xc /home/tony/workdir/stm32h7xxcpplib/output/isrcommon.o
                0x0000000008001010                LPTIM3_IRQHandler
 .text.LPTIM4_IRQHandler
                0x000000000800101c        0xc /home/tony/workdir/stm32h7xxcpplib/output/isrcommon.o
                0x000000000800101c                LPTIM4_IRQHandler
 .text.LPTIM5_IRQHandler
                0x0000000008001028        0xc /home/tony/workdir/stm32h7xxcpplib/output/isrcommon.o
                0x0000000008001028                LPTIM5_IRQHandler
 .text.registerDMAIsrCb
                0x0000000008001034      0x138 /home/tony/workdir/stm32h7xxcpplib/output/isrcommon.o
                0x0000000008001034                registerDMAIsrCb
 .text.unRegisterDMAIsrCb
                0x000000000800116c       0x2c /home/tony/workdir/stm32h7xxcpplib/output/isrcommon.o
                0x000000000800116c                unRegisterDMAIsrCb
 .text.registerBDMAIsrCb
                0x0000000008001198       0x9c /home/tony/workdir/stm32h7xxcpplib/output/isrcommon.o
                0x0000000008001198                registerBDMAIsrCb
 .text.unRegisterBDMAIsrCb
                0x0000000008001234       0x2c /home/tony/workdir/stm32h7xxcpplib/output/isrcommon.o
                0x0000000008001234                unRegisterBDMAIsrCb
 .text.DMA1_Stream0_IRQHandler
                0x0000000008001260       0xb0 /home/tony/workdir/stm32h7xxcpplib/output/isrcommon.o
                0x0000000008001260                DMA1_Stream0_IRQHandler
 .text.DMA1_Stream1_IRQHandler
                0x0000000008001310       0xb8 /home/tony/workdir/stm32h7xxcpplib/output/isrcommon.o
                0x0000000008001310                DMA1_Stream1_IRQHandler
 .text.DMA1_Stream2_IRQHandler
                0x00000000080013c8       0xbc /home/tony/workdir/stm32h7xxcpplib/output/isrcommon.o
                0x00000000080013c8                DMA1_Stream2_IRQHandler
 .text.DMA1_Stream3_IRQHandler
                0x0000000008001484       0xbc /home/tony/workdir/stm32h7xxcpplib/output/isrcommon.o
                0x0000000008001484                DMA1_Stream3_IRQHandler
 .text.DMA1_Stream4_IRQHandler
                0x0000000008001540       0xb4 /home/tony/workdir/stm32h7xxcpplib/output/isrcommon.o
                0x0000000008001540                DMA1_Stream4_IRQHandler
 .text.DMA1_Stream5_IRQHandler
                0x00000000080015f4       0xc4 /home/tony/workdir/stm32h7xxcpplib/output/isrcommon.o
                0x00000000080015f4                DMA1_Stream5_IRQHandler
 .text.DMA1_Stream6_IRQHandler
                0x00000000080016b8       0xc4 /home/tony/workdir/stm32h7xxcpplib/output/isrcommon.o
                0x00000000080016b8                DMA1_Stream6_IRQHandler
 .text.DMA1_Stream7_IRQHandler
                0x000000000800177c       0xc4 /home/tony/workdir/stm32h7xxcpplib/output/isrcommon.o
                0x000000000800177c                DMA1_Stream7_IRQHandler
 .text.DMA2_Stream0_IRQHandler
                0x0000000008001840       0xa8 /home/tony/workdir/stm32h7xxcpplib/output/isrcommon.o
                0x0000000008001840                DMA2_Stream0_IRQHandler
 .text.DMA2_Stream1_IRQHandler
                0x00000000080018e8       0xb0 /home/tony/workdir/stm32h7xxcpplib/output/isrcommon.o
                0x00000000080018e8                DMA2_Stream1_IRQHandler
 .text.DMA2_Stream2_IRQHandler
                0x0000000008001998       0xbc /home/tony/workdir/stm32h7xxcpplib/output/isrcommon.o
                0x0000000008001998                DMA2_Stream2_IRQHandler
 .text.DMA2_Stream3_IRQHandler
                0x0000000008001a54       0xc8 /home/tony/workdir/stm32h7xxcpplib/output/isrcommon.o
                0x0000000008001a54                DMA2_Stream3_IRQHandler
 .text.DMA2_Stream4_IRQHandler
                0x0000000008001b1c       0xc0 /home/tony/workdir/stm32h7xxcpplib/output/isrcommon.o
                0x0000000008001b1c                DMA2_Stream4_IRQHandler
 .text.DMA2_Stream5_IRQHandler
                0x0000000008001bdc       0xd0 /home/tony/workdir/stm32h7xxcpplib/output/isrcommon.o
                0x0000000008001bdc                DMA2_Stream5_IRQHandler
 .text.DMA2_Stream6_IRQHandler
                0x0000000008001cac       0xd0 /home/tony/workdir/stm32h7xxcpplib/output/isrcommon.o
                0x0000000008001cac                DMA2_Stream6_IRQHandler
 .text.DMA2_Stream7_IRQHandler
                0x0000000008001d7c       0xd0 /home/tony/workdir/stm32h7xxcpplib/output/isrcommon.o
                0x0000000008001d7c                DMA2_Stream7_IRQHandler
 .text.BDMA_Channel0_IRQHandler
                0x0000000008001e4c       0x8c /home/tony/workdir/stm32h7xxcpplib/output/isrcommon.o
                0x0000000008001e4c                BDMA_Channel0_IRQHandler
 .text.BDMA_Channel1_IRQHandler
                0x0000000008001ed8       0x8c /home/tony/workdir/stm32h7xxcpplib/output/isrcommon.o
                0x0000000008001ed8                BDMA_Channel1_IRQHandler
 .text.BDMA_Channel2_IRQHandler
                0x0000000008001f64       0x94 /home/tony/workdir/stm32h7xxcpplib/output/isrcommon.o
                0x0000000008001f64                BDMA_Channel2_IRQHandler
 .text.BDMA_Channel3_IRQHandler
                0x0000000008001ff8       0x94 /home/tony/workdir/stm32h7xxcpplib/output/isrcommon.o
                0x0000000008001ff8                BDMA_Channel3_IRQHandler
 .text.BDMA_Channel4_IRQHandler
                0x000000000800208c       0x94 /home/tony/workdir/stm32h7xxcpplib/output/isrcommon.o
                0x000000000800208c                BDMA_Channel4_IRQHandler
 .text.BDMA_Channel5_IRQHandler
                0x0000000008002120       0x94 /home/tony/workdir/stm32h7xxcpplib/output/isrcommon.o
                0x0000000008002120                BDMA_Channel5_IRQHandler
 .text.BDMA_Channel6_IRQHandler
                0x00000000080021b4       0x98 /home/tony/workdir/stm32h7xxcpplib/output/isrcommon.o
                0x00000000080021b4                BDMA_Channel6_IRQHandler
 .text.BDMA_Channel7_IRQHandler
                0x000000000800224c       0x98 /home/tony/workdir/stm32h7xxcpplib/output/isrcommon.o
                0x000000000800224c                BDMA_Channel7_IRQHandler
 .text.DMAMUX1_OVR_IRQHandler
                0x00000000080022e4       0x20 /home/tony/workdir/stm32h7xxcpplib/output/isrcommon.o
                0x00000000080022e4                DMAMUX1_OVR_IRQHandler
 .text.DMAMUX2_OVR_IRQHandler
                0x0000000008002304       0x20 /home/tony/workdir/stm32h7xxcpplib/output/isrcommon.o
                0x0000000008002304                DMAMUX2_OVR_IRQHandler
 .text.registerRTCIsrCb
                0x0000000008002324       0x44 /home/tony/workdir/stm32h7xxcpplib/output/isrcommon.o
                0x0000000008002324                registerRTCIsrCb
 .text.unRegisterRTCIsrCb
                0x0000000008002368       0x4c /home/tony/workdir/stm32h7xxcpplib/output/isrcommon.o
                0x0000000008002368                unRegisterRTCIsrCb
 .text.TAMP_STAMP_IRQHandler
                0x00000000080023b4      0x100 /home/tony/workdir/stm32h7xxcpplib/output/isrcommon.o
                0x00000000080023b4                TAMP_STAMP_IRQHandler
 .text.RTC_WKUP_IRQHandler
                0x00000000080024b4       0x40 /home/tony/workdir/stm32h7xxcpplib/output/isrcommon.o
                0x00000000080024b4                RTC_WKUP_IRQHandler
 .text.RTC_Alarm_IRQHandler
                0x00000000080024f4       0x6c /home/tony/workdir/stm32h7xxcpplib/output/isrcommon.o
                0x00000000080024f4                RTC_Alarm_IRQHandler
 .text.initTick
                0x0000000008002560       0x78 /home/tony/workdir/stm32h7xxcpplib/output/isrcommon.o
                0x0000000008002560                initTick
 .text.incTick  0x00000000080025d8       0x18 /home/tony/workdir/stm32h7xxcpplib/output/isrcommon.o
                0x00000000080025d8                incTick
 .text.getTick  0x00000000080025f0        0xc /home/tony/workdir/stm32h7xxcpplib/output/isrcommon.o
                0x00000000080025f0                getTick
 .text.getTickPrio
                0x00000000080025fc        0xc /home/tony/workdir/stm32h7xxcpplib/output/isrcommon.o
                0x00000000080025fc                getTickPrio
 .text.setTickFreq
                0x0000000008002608       0x28 /home/tony/workdir/stm32h7xxcpplib/output/isrcommon.o
                0x0000000008002608                setTickFreq
 .text.getTickFreq
                0x0000000008002630        0xc /home/tony/workdir/stm32h7xxcpplib/output/isrcommon.o
                0x0000000008002630                getTickFreq
 .text.delayTick
                0x000000000800263c       0x24 /home/tony/workdir/stm32h7xxcpplib/output/isrcommon.o
                0x000000000800263c                delayTick
 .text.NMI_Handler
                0x0000000008002660        0x2 /home/tony/workdir/stm32h7xxcpplib/output/stm32h7xx_it.o
                0x0000000008002660                NMI_Handler
 .text.MemManage_Handler
                0x0000000008002662        0x2 /home/tony/workdir/stm32h7xxcpplib/output/stm32h7xx_it.o
                0x0000000008002662                MemManage_Handler
 .text.BusFault_Handler
                0x0000000008002664        0x2 /home/tony/workdir/stm32h7xxcpplib/output/stm32h7xx_it.o
                0x0000000008002664                BusFault_Handler
 .text.UsageFault_Handler
                0x0000000008002666        0x2 /home/tony/workdir/stm32h7xxcpplib/output/stm32h7xx_it.o
                0x0000000008002666                UsageFault_Handler
 .text.DebugMon_Handler
                0x0000000008002668        0x2 /home/tony/workdir/stm32h7xxcpplib/output/stm32h7xx_it.o
                0x0000000008002668                DebugMon_Handler
 *fill*         0x000000000800266a        0x2 
 .text.SystemInit
                0x000000000800266c       0x70 /home/tony/workdir/stm32h7xxcpplib/output/system_stm32h7xx.o
                0x000000000800266c                SystemInit
 .text.SystemCoreClockUpdate
                0x00000000080026dc      0x144 /home/tony/workdir/stm32h7xxcpplib/output/system_stm32h7xx.o
                0x00000000080026dc                SystemCoreClockUpdate
 .text._read    0x0000000008002820       0x20 /home/tony/workdir/stm32h7xxcpplib/output/printfremap.o
                0x0000000008002820                _read
 .text._write   0x0000000008002840       0x20 /home/tony/workdir/stm32h7xxcpplib/output/printfremap.o
                0x0000000008002840                _write
 .text._ZN10RCCControlD2Ev
                0x0000000008002860        0x2 /home/tony/workdir/stm32h7xxcpplib/output/main.o
                0x0000000008002860                RCCControl::~RCCControl()
                0x0000000008002860                RCCControl::~RCCControl()
 .text._ZN4mMemD2Ev
                0x0000000008002862        0x2 /home/tony/workdir/stm32h7xxcpplib/output/main.o
                0x0000000008002862                mMem::~mMem()
                0x0000000008002862                mMem::~mMem()
 .text._ZNSt17_Function_handlerIFvvEZ4mainEUlvE0_E10_M_managerERSt9_Any_dataRKS3_St18_Manager_operation
                0x0000000008002864       0x3c /home/tony/workdir/stm32h7xxcpplib/output/main.o
 .text._ZNSt17_Function_handlerIFvvEZ4mainEUlvE_E10_M_managerERSt9_Any_dataRKS3_St18_Manager_operation
                0x00000000080028a0        0xa /home/tony/workdir/stm32h7xxcpplib/output/main.o
 .text._ZNSt14_Function_baseD2Ev
                0x00000000080028aa       0x12 /home/tony/workdir/stm32h7xxcpplib/output/main.o
                0x00000000080028aa                std::_Function_base::~_Function_base()
                0x00000000080028aa                std::_Function_base::~_Function_base()
 .text._ZN3LED3offEv
                0x00000000080028bc       0x18 /home/tony/workdir/stm32h7xxcpplib/output/main.o
                0x00000000080028bc                LED::off()
 .text._ZN3LEDC2EP12GPIO_TypeDefmb
                0x00000000080028d4       0xdc /home/tony/workdir/stm32h7xxcpplib/output/main.o
                0x00000000080028d4                LED::LED(GPIO_TypeDef*, unsigned long, bool)
                0x00000000080028d4                LED::LED(GPIO_TypeDef*, unsigned long, bool)
 .text._ZN3LED7reverseEv
                0x00000000080029b0       0x16 /home/tony/workdir/stm32h7xxcpplib/output/main.o
                0x00000000080029b0                LED::reverse()
 *fill*         0x00000000080029c6        0x2 
 .text._ZNSt17_Function_handlerIFvvEZ4mainEUlvE0_E9_M_invokeERKSt9_Any_data
                0x00000000080029c8       0x34 /home/tony/workdir/stm32h7xxcpplib/output/main.o
 .text._ZN4mMem11getInstanceEv
                0x00000000080029fc       0x54 /home/tony/workdir/stm32h7xxcpplib/output/main.o
                0x00000000080029fc                mMem::getInstance()
 .text._ZNSt17_Function_handlerIFvvEZ4mainEUlvE_E9_M_invokeERKSt9_Any_data
                0x0000000008002a50       0x28 /home/tony/workdir/stm32h7xxcpplib/output/main.o
 .text.startup.main
                0x0000000008002a78       0xdc /home/tony/workdir/stm32h7xxcpplib/output/main.o
                0x0000000008002a78                main
 .text._ZN4mIrqD2Ev
                0x0000000008002b54        0x2 /home/tony/workdir/stm32h7xxcpplib/output/board.o
                0x0000000008002b54                mIrq::~mIrq()
                0x0000000008002b54                mIrq::~mIrq()
 .text._ZN6mClockD2Ev
                0x0000000008002b56        0x2 /home/tony/workdir/stm32h7xxcpplib/output/board.o
                0x0000000008002b56                mClock::~mClock()
                0x0000000008002b56                mClock::~mClock()
 .text._ZN4mIrq11getInstanceEv
                0x0000000008002b58       0x40 /home/tony/workdir/stm32h7xxcpplib/output/board.o
                0x0000000008002b58                mIrq::getInstance()
 .text.SysTick_Handler
                0x0000000008002b98       0x58 /home/tony/workdir/stm32h7xxcpplib/output/board.o
                0x0000000008002b98                SysTick_Handler
 .text._Z9boardInitv
                0x0000000008002bf0       0x6c /home/tony/workdir/stm32h7xxcpplib/output/board.o
                0x0000000008002bf0                boardInit()
 .text.hwStackInit
                0x0000000008002c5c       0x40 /home/tony/workdir/stm32h7xxcpplib/output/cpuport.o
                0x0000000008002c5c                hwStackInit
 .text.hwHardFaultException
                0x0000000008002c9c        0x2 /home/tony/workdir/stm32h7xxcpplib/output/cpuport.o
                0x0000000008002c9c                hwHardFaultException
 .text._ZN9mScheduleD2Ev
                0x0000000008002c9e        0x2 /home/tony/workdir/stm32h7xxcpplib/output/mclock.o
                0x0000000008002c9e                mSchedule::~mSchedule()
                0x0000000008002c9e                mSchedule::~mSchedule()
 .text._ZN6mClock7tickGetEv
                0x0000000008002ca0        0x4 /home/tony/workdir/stm32h7xxcpplib/output/mclock.o
                0x0000000008002ca0                mClock::tickGet()
 .text._ZN6mClock7tickSetEm
                0x0000000008002ca4        0xe /home/tony/workdir/stm32h7xxcpplib/output/mclock.o
                0x0000000008002ca4                mClock::tickSet(unsigned long)
 *fill*         0x0000000008002cb2        0x2 
 .text._ZN6mClock12tickIncreaseEv
                0x0000000008002cb4       0x88 /home/tony/workdir/stm32h7xxcpplib/output/mclock.o
                0x0000000008002cb4                mClock::tickIncrease()
 .text._ZN6mClock19tickFromMillisecondEl
                0x0000000008002d3c       0x24 /home/tony/workdir/stm32h7xxcpplib/output/mclock.o
                0x0000000008002d3c                mClock::tickFromMillisecond(long)
 .text._ZN6mClock13getRegisterCbEv
                0x0000000008002d60        0x4 /home/tony/workdir/stm32h7xxcpplib/output/mclock.o
                0x0000000008002d60                mClock::getRegisterCb()
 .text._Z15mainThreadEntryPv
                0x0000000008002d64        0x4 /home/tony/workdir/stm32h7xxcpplib/output/mcomponents.o
                0x0000000008002d64                mainThreadEntry(void*)
 .text._ZN9mSchedule11getInstanceEv
                0x0000000008002d68       0x60 /home/tony/workdir/stm32h7xxcpplib/output/mcomponents.o
                0x0000000008002d68                mSchedule::getInstance()
 .text._ZN6mClock11getInstanceEv
                0x0000000008002dc8       0x40 /home/tony/workdir/stm32h7xxcpplib/output/mcomponents.o
                0x0000000008002dc8                mClock::getInstance()
 .text._ZN5mIdleD2Ev
                0x0000000008002e08       0x16 /home/tony/workdir/stm32h7xxcpplib/output/mcomponents.o
                0x0000000008002e08                mIdle::~mIdle()
                0x0000000008002e08                mIdle::~mIdle()
 .text._ZN10mComponetsD2Ev
                0x0000000008002e1e       0x16 /home/tony/workdir/stm32h7xxcpplib/output/mcomponents.o
                0x0000000008002e1e                mComponets::~mComponets()
                0x0000000008002e1e                mComponets::~mComponets()
 .text._ZN6mTimerC2Ev
                0x0000000008002e34       0x38 /home/tony/workdir/stm32h7xxcpplib/output/mcomponents.o
                0x0000000008002e34                mTimer::mTimer()
                0x0000000008002e34                mTimer::mTimer()
 .text._ZN10mComponets7startUpEv
                0x0000000008002e6c       0xcc /home/tony/workdir/stm32h7xxcpplib/output/mcomponents.o
                0x0000000008002e6c                mComponets::startUp()
 .text.entry    0x0000000008002f38       0x74 /home/tony/workdir/stm32h7xxcpplib/output/mcomponents.o
                0x0000000008002f38                entry
 .text._ZN7mObjectD2Ev
                0x0000000008002fac        0x2 /home/tony/workdir/stm32h7xxcpplib/output/midle.o
                0x0000000008002fac                mObject::~mObject()
                0x0000000008002fac                mObject::~mObject()
 .text._ZNSt17_Function_handlerIFvvEZN5mIdle14threadIdleInitEvEUlvE_E10_M_managerERSt9_Any_dataRKS4_St18_Manager_operation
                0x0000000008002fae        0xa /home/tony/workdir/stm32h7xxcpplib/output/midle.o
 .text._ZN5mIdle14threadIdleInitEv
                0x0000000008002fb8       0x48 /home/tony/workdir/stm32h7xxcpplib/output/midle.o
                0x0000000008002fb8                mIdle::threadIdleInit()
 .text._ZN5mIdle4execEv
                0x0000000008003000       0xc8 /home/tony/workdir/stm32h7xxcpplib/output/midle.o
                0x0000000008003000                mIdle::exec()
 .text._ZNSt17_Function_handlerIFvvEZN5mIdle14threadIdleInitEvEUlvE_E9_M_invokeERKSt9_Any_data
                0x00000000080030c8        0x8 /home/tony/workdir/stm32h7xxcpplib/output/midle.o
 .text._ZN7mObject11getInstanceEv
                0x00000000080030d0       0x58 /home/tony/workdir/stm32h7xxcpplib/output/mipc.o
                0x00000000080030d0                mObject::getInstance()
 .text._ZN4mIpc13ipcObjectInitEP12mIpcObject_t
                0x0000000008003128        0x4 /home/tony/workdir/stm32h7xxcpplib/output/mipc.o
                0x0000000008003128                mIpc::ipcObjectInit(mIpcObject_t*)
 .text._ZN4mIpc14ipcListSuspendEP12mIpcObject_tP8thread_t8mIpcFlag
                0x000000000800312c       0x64 /home/tony/workdir/stm32h7xxcpplib/output/mipc.o
                0x000000000800312c                mIpc::ipcListSuspend(mIpcObject_t*, thread_t*, mIpcFlag)
 .text._ZN4mIpc13ipcListResumeEP12mIpcObject_t
                0x0000000008003190        0xe /home/tony/workdir/stm32h7xxcpplib/output/mipc.o
                0x0000000008003190                mIpc::ipcListResume(mIpcObject_t*)
 .text._ZN4mIpc16ipcListResumeAllEP12mIpcObject_t
                0x000000000800319e       0x2e /home/tony/workdir/stm32h7xxcpplib/output/mipc.o
                0x000000000800319e                mIpc::ipcListResumeAll(mIpcObject_t*)
 .text._ZN10mSemaphore11semCreateExEPKcm8mIpcFlag
                0x00000000080031cc       0x38 /home/tony/workdir/stm32h7xxcpplib/output/mipc.o
                0x00000000080031cc                mSemaphore::semCreateEx(char const*, unsigned long, mIpcFlag)
 .text._ZN10mSemaphore9semDeleteEv
                0x0000000008003204       0x60 /home/tony/workdir/stm32h7xxcpplib/output/mipc.o
                0x0000000008003204                mSemaphore::semDelete()
 .text._ZN10mSemaphore4initEPKcm8mIpcFlag
                0x0000000008003264       0x38 /home/tony/workdir/stm32h7xxcpplib/output/mipc.o
                0x0000000008003264                mSemaphore::init(char const*, unsigned long, mIpcFlag)
 .text._ZN10mSemaphore6detachEv
                0x000000000800329c       0x50 /home/tony/workdir/stm32h7xxcpplib/output/mipc.o
                0x000000000800329c                mSemaphore::detach()
 .text._ZN10mSemaphore7semTakeEl
                0x00000000080032ec       0x98 /home/tony/workdir/stm32h7xxcpplib/output/mipc.o
                0x00000000080032ec                mSemaphore::semTake(long)
 .text._ZN10mSemaphore10semTrytakeEv
                0x0000000008003384        0x6 /home/tony/workdir/stm32h7xxcpplib/output/mipc.o
                0x0000000008003384                mSemaphore::semTrytake()
 *fill*         0x000000000800338a        0x2 
 .text._ZN10mSemaphore10semReleaseEv
                0x000000000800338c       0x74 /home/tony/workdir/stm32h7xxcpplib/output/mipc.o
                0x000000000800338c                mSemaphore::semRelease()
 .text._ZN10mSemaphore10semControlE7mIpcCmdPv
                0x0000000008003400       0x54 /home/tony/workdir/stm32h7xxcpplib/output/mipc.o
                0x0000000008003400                mSemaphore::semControl(mIpcCmd, void*)
 .text._ZNK4mIrq33getInterruptNestWithoutDisableIsrEv
                0x0000000008003454        0x4 /home/tony/workdir/stm32h7xxcpplib/output/mirq.o
                0x0000000008003454                mIrq::getInterruptNestWithoutDisableIsr() const
 .text._ZN4mIrq18interruptNestResetEv
                0x0000000008003458        0x6 /home/tony/workdir/stm32h7xxcpplib/output/mirq.o
                0x0000000008003458                mIrq::interruptNestReset()
 .text._ZN4mIrq14interruptEnterEv
                0x000000000800345e       0x18 /home/tony/workdir/stm32h7xxcpplib/output/mirq.o
                0x000000000800345e                mIrq::interruptEnter()
 .text._ZN4mIrq14interruptLeaveEv
                0x0000000008003476       0x18 /home/tony/workdir/stm32h7xxcpplib/output/mirq.o
                0x0000000008003476                mIrq::interruptLeave()
 .text._ZNK4mIrq16interruptGetNestEv
                0x000000000800348e       0x14 /home/tony/workdir/stm32h7xxcpplib/output/mirq.o
                0x000000000800348e                mIrq::interruptGetNest() const
 *fill*         0x00000000080034a2        0x2 
 .text._ZN9mKservice8__rt_ffsEi
                0x00000000080034a4       0x44 /home/tony/workdir/stm32h7xxcpplib/output/mkservice.o
                0x00000000080034a4                mKservice::__rt_ffs(int)
 .text._ZN4mMem4initEPvS0_
                0x00000000080034e8       0x74 /home/tony/workdir/stm32h7xxcpplib/output/mmem.o
                0x00000000080034e8                mMem::init(void*, void*)
 .text._ZN4mMem6mallocEm
                0x000000000800355c      0x128 /home/tony/workdir/stm32h7xxcpplib/output/mmem.o
                0x000000000800355c                mMem::malloc(unsigned long)
 .text._ZN4mMem6callocEmm
                0x0000000008003684       0x22 /home/tony/workdir/stm32h7xxcpplib/output/mmem.o
                0x0000000008003684                mMem::calloc(unsigned long, unsigned long)
 *fill*         0x00000000080036a6        0x2 
 .text._ZN4mMem9plugHolesEP9heapMem_t
                0x00000000080036a8       0x8c /home/tony/workdir/stm32h7xxcpplib/output/mmem.o
                0x00000000080036a8                mMem::plugHoles(heapMem_t*)
 .text._ZN4mMem4freeEPv
                0x0000000008003734       0xf0 /home/tony/workdir/stm32h7xxcpplib/output/mmem.o
                0x0000000008003734                mMem::free(void*)
 .text._ZN4mMem7reallocEPvm
                0x0000000008003824       0xe2 /home/tony/workdir/stm32h7xxcpplib/output/mmem.o
                0x0000000008003824                mMem::realloc(void*, unsigned long)
 .text._Znwj    0x0000000008003906       0x14 /home/tony/workdir/stm32h7xxcpplib/output/mmem.o
                0x0000000008003906                operator new(unsigned int)
 .text._Znaj    0x000000000800391a        0x4 /home/tony/workdir/stm32h7xxcpplib/output/mmem.o
                0x000000000800391a                operator new[](unsigned int)
 .text._ZdlPv   0x000000000800391e       0x14 /home/tony/workdir/stm32h7xxcpplib/output/mmem.o
                0x000000000800391e                operator delete(void*)
 .text._ZdaPv   0x0000000008003932        0x4 /home/tony/workdir/stm32h7xxcpplib/output/mmem.o
                0x0000000008003932                operator delete[](void*)
 .text._ZN7mObject20objectGetInformationE16mObjectClassType
                0x0000000008003936       0x28 /home/tony/workdir/stm32h7xxcpplib/output/mobject.o
                0x0000000008003936                mObject::objectGetInformation(mObjectClassType)
 .text._ZN7mObject15objectGetLengthE16mObjectClassType
                0x000000000800395e       0x28 /home/tony/workdir/stm32h7xxcpplib/output/mobject.o
                0x000000000800395e                mObject::objectGetLength(mObjectClassType)
 .text._ZN7mObject17objectGetPointersE16mObjectClassTypePP9mObject_ti
                0x0000000008003986       0x3e /home/tony/workdir/stm32h7xxcpplib/output/mobject.o
                0x0000000008003986                mObject::objectGetPointers(mObjectClassType, mObject_t**, int)
 .text._ZN7mObject10objectInitEP9mObject_t16mObjectClassTypePKc
                0x00000000080039c4       0x8c /home/tony/workdir/stm32h7xxcpplib/output/mobject.o
                0x00000000080039c4                mObject::objectInit(mObject_t*, mObjectClassType, char const*)
 .text._ZN7mObject12objectDetachEP9mObject_t
                0x0000000008003a50       0x38 /home/tony/workdir/stm32h7xxcpplib/output/mobject.o
                0x0000000008003a50                mObject::objectDetach(mObject_t*)
 .text._ZN7mObject9objectAddEP9mObject_t16mObjectClassTypePKc
                0x0000000008003a88       0x58 /home/tony/workdir/stm32h7xxcpplib/output/mobject.o
                0x0000000008003a88                mObject::objectAdd(mObject_t*, mObjectClassType, char const*)
 .text._ZN7mObject12objectRemoveEP9mObject_t
                0x0000000008003ae0       0x4c /home/tony/workdir/stm32h7xxcpplib/output/mobject.o
                0x0000000008003ae0                mObject::objectRemove(mObject_t*)
 .text._ZN7mObject13objectGetTypeEP9mObject_t
                0x0000000008003b2c       0x24 /home/tony/workdir/stm32h7xxcpplib/output/mobject.o
                0x0000000008003b2c                mObject::objectGetType(mObject_t*)
 .text._ZN7mObject20objectIsSystemobjectEP9mObject_t
                0x0000000008003b50       0x20 /home/tony/workdir/stm32h7xxcpplib/output/mobject.o
                0x0000000008003b50                mObject::objectIsSystemobject(mObject_t*)
 .text._ZN7mObject10objectFindEPKc16mObjectClassType
                0x0000000008003b70       0x52 /home/tony/workdir/stm32h7xxcpplib/output/mobject.o
                0x0000000008003b70                mObject::objectFind(char const*, mObjectClassType)
 .text._ZN7mObject14objectInfoInitEv
                0x0000000008003bc2        0xe /home/tony/workdir/stm32h7xxcpplib/output/mobject.o
                0x0000000008003bc2                mObject::objectInfoInit()
 .text._ZN9mKserviceD2Ev
                0x0000000008003bd0        0x2 /home/tony/workdir/stm32h7xxcpplib/output/mscheduler.o
                0x0000000008003bd0                mKservice::~mKservice()
                0x0000000008003bd0                mKservice::~mKservice()
 *fill*         0x0000000008003bd2        0x2 
 .text._ZN9mKservice11getInstanceEv
                0x0000000008003bd4       0x3c /home/tony/workdir/stm32h7xxcpplib/output/mscheduler.o
                0x0000000008003bd4                mKservice::getInstance()
 .text._ZN9mSchedule19schedulerStackCheckEP8thread_t
                0x0000000008003c10       0x5c /home/tony/workdir/stm32h7xxcpplib/output/mscheduler.o
                0x0000000008003c10                mSchedule::schedulerStackCheck(thread_t*)
 .text._ZN9mSchedule19systemSchedulerInitEv
                0x0000000008003c6c       0x18 /home/tony/workdir/stm32h7xxcpplib/output/mscheduler.o
                0x0000000008003c6c                mSchedule::systemSchedulerInit()
 .text._ZN9mSchedule20systemSchedulerStartEv
                0x0000000008003c84       0x24 /home/tony/workdir/stm32h7xxcpplib/output/mscheduler.o
                0x0000000008003c84                mSchedule::systemSchedulerStart()
 .text._ZN9mSchedule8scheduleEv
                0x0000000008003ca8       0x58 /home/tony/workdir/stm32h7xxcpplib/output/mscheduler.o
                0x0000000008003ca8                mSchedule::schedule()
 .text._ZN9mSchedule20scheduleInsertThreadEP8thread_t
                0x0000000008003d00       0x58 /home/tony/workdir/stm32h7xxcpplib/output/mscheduler.o
                0x0000000008003d00                mSchedule::scheduleInsertThread(thread_t*)
 .text._ZN9mSchedule20scheduleRemoveThreadEP8thread_t
                0x0000000008003d58       0x54 /home/tony/workdir/stm32h7xxcpplib/output/mscheduler.o
                0x0000000008003d58                mSchedule::scheduleRemoveThread(thread_t*)
 .text._ZN9mSchedule13enterCriticalEv
                0x0000000008003dac       0x16 /home/tony/workdir/stm32h7xxcpplib/output/mscheduler.o
                0x0000000008003dac                mSchedule::enterCritical()
 .text._ZN9mSchedule12exitCriticalEv
                0x0000000008003dc2       0x34 /home/tony/workdir/stm32h7xxcpplib/output/mscheduler.o
                0x0000000008003dc2                mSchedule::exitCritical()
 .text._ZN9mSchedule13criticalLevelEv
                0x0000000008003df6        0x4 /home/tony/workdir/stm32h7xxcpplib/output/mscheduler.o
                0x0000000008003df6                mSchedule::criticalLevel()
 .text._ZN9mSchedule16getCurrentThreadEv
                0x0000000008003dfa        0x4 /home/tony/workdir/stm32h7xxcpplib/output/mscheduler.o
                0x0000000008003dfa                mSchedule::getCurrentThread()
 .text._ZN9mSchedule16getThreadDefunctEv
                0x0000000008003dfe        0x4 /home/tony/workdir/stm32h7xxcpplib/output/mscheduler.o
                0x0000000008003dfe                mSchedule::getThreadDefunct()
 .text._ZN9mSchedule22getThreadPriorityTableEh
                0x0000000008003e02        0x8 /home/tony/workdir/stm32h7xxcpplib/output/mscheduler.o
                0x0000000008003e02                mSchedule::getThreadPriorityTable(unsigned char)
 .text._ZN7mthread10threadFuncEPv
                0x0000000008003e0a       0x12 /home/tony/workdir/stm32h7xxcpplib/output/mthread.o
                0x0000000008003e0a                mthread::threadFunc(void*)
 .text._ZN7mthread11threadYieldEv
                0x0000000008003e1c       0x66 /home/tony/workdir/stm32h7xxcpplib/output/mthread.o
                0x0000000008003e1c                mthread::threadYield()
 *fill*         0x0000000008003e82        0x2 
 .text._ZN7mthread13threadTimeoutEPv
                0x0000000008003e84       0x78 /home/tony/workdir/stm32h7xxcpplib/output/mthread.o
                0x0000000008003e84                mthread::threadTimeout(void*)
 .text._ZNSt8functionIFvvEEaSERKS1_.isra.0
                0x0000000008003efc       0x54 /home/tony/workdir/stm32h7xxcpplib/output/mthread.o
 .text._ZN7mthread10threadSelfEv
                0x0000000008003f50        0xe /home/tony/workdir/stm32h7xxcpplib/output/mthread.o
                0x0000000008003f50                mthread::threadSelf()
 *fill*         0x0000000008003f5e        0x2 
 .text._ZN7mthread13threadSuspendEP8thread_t
                0x0000000008003f60       0x78 /home/tony/workdir/stm32h7xxcpplib/output/mthread.o
                0x0000000008003f60                mthread::threadSuspend(thread_t*)
 .text._ZN7mthread11threadSleepEm
                0x0000000008003fd8       0x7c /home/tony/workdir/stm32h7xxcpplib/output/mthread.o
                0x0000000008003fd8                mthread::threadSleep(unsigned long)
 .text._ZN7mthread11threadDelayEm
                0x0000000008004054        0x4 /home/tony/workdir/stm32h7xxcpplib/output/mthread.o
                0x0000000008004054                mthread::threadDelay(unsigned long)
 .text._ZN7mthread12threadMdelayEl
                0x0000000008004058       0x18 /home/tony/workdir/stm32h7xxcpplib/output/mthread.o
                0x0000000008004058                mthread::threadMdelay(long)
 .text._ZN7mthread16threadDelayUntilEPmm
                0x0000000008004070       0xb8 /home/tony/workdir/stm32h7xxcpplib/output/mthread.o
                0x0000000008004070                mthread::threadDelayUntil(unsigned long*, unsigned long)
 .text._ZN7mthread12threadResumeEv
                0x0000000008004128       0x68 /home/tony/workdir/stm32h7xxcpplib/output/mthread.o
                0x0000000008004128                mthread::threadResume()
 .text._ZN7mthread7startupEv
                0x0000000008004190       0x64 /home/tony/workdir/stm32h7xxcpplib/output/mthread.o
                0x0000000008004190                mthread::startup()
 .text._ZN7mthread10threadFindEPc
                0x00000000080041f4       0x16 /home/tony/workdir/stm32h7xxcpplib/output/mthread.o
                0x00000000080041f4                mthread::threadFind(char*)
 .text._ZN7mthread10getThTimerEv
                0x000000000800420a        0x4 /home/tony/workdir/stm32h7xxcpplib/output/mthread.o
                0x000000000800420a                mthread::getThTimer()
 .text._ZNK7mthread4nameEv
                0x000000000800420e        0x2 /home/tony/workdir/stm32h7xxcpplib/output/mthread.o
                0x000000000800420e                mthread::name() const
 .text._ZN7mthread10threadInitEPKcPFvPvES2_S2_mhm
                0x0000000008004210       0x70 /home/tony/workdir/stm32h7xxcpplib/output/mthread.o
                0x0000000008004210                mthread::threadInit(char const*, void (*)(void*), void*, void*, unsigned long, unsigned char, unsigned long)
 .text._ZN7mthread4initEPKcPFvPvES2_S2_mhm
                0x0000000008004280       0x58 /home/tony/workdir/stm32h7xxcpplib/output/mthread.o
                0x0000000008004280                mthread::init(char const*, void (*)(void*), void*, void*, unsigned long, unsigned char, unsigned long)
 .text._ZN7mthread4initEPKcPvmhmRKSt8functionIFvvEE
                0x00000000080042d8       0x38 /home/tony/workdir/stm32h7xxcpplib/output/mthread.o
                0x00000000080042d8                mthread::init(char const*, void*, unsigned long, unsigned char, unsigned long, std::function<void ()> const&)
 .text._ZN7mthread12threadCreateEPKcPFvPvES2_mhm
                0x0000000008004310       0x54 /home/tony/workdir/stm32h7xxcpplib/output/mthread.o
                0x0000000008004310                mthread::threadCreate(char const*, void (*)(void*), void*, unsigned long, unsigned char, unsigned long)
 .text._ZN7mthread12threadCreateEPKcmhmRKSt8functionIFvvEE
                0x0000000008004364       0x30 /home/tony/workdir/stm32h7xxcpplib/output/mthread.o
                0x0000000008004364                mthread::threadCreate(char const*, unsigned long, unsigned char, unsigned long, std::function<void ()> const&)
 .text._ZN7mthread6createEPKcmhmRKSt8functionIFvvEE
                0x0000000008004394       0xa8 /home/tony/workdir/stm32h7xxcpplib/output/mthread.o
                0x0000000008004394                mthread::create(char const*, unsigned long, unsigned char, unsigned long, std::function<void ()> const&)
 .text._ZN7mthread20threadCleanupExecuteEP8thread_t
                0x000000000800443c       0x1c /home/tony/workdir/stm32h7xxcpplib/output/mthread.o
                0x000000000800443c                mthread::threadCleanupExecute(thread_t*)
 .text._ZN7mthread10threadExtiEv
                0x0000000008004458       0x74 /home/tony/workdir/stm32h7xxcpplib/output/mthread.o
                0x0000000008004458                mthread::threadExti()
 .text._ZN7mthread12threadDeleteEv
                0x00000000080044cc       0x9c /home/tony/workdir/stm32h7xxcpplib/output/mthread.o
                0x00000000080044cc                mthread::threadDelete()
 .text._ZN7mthread12threadDetachEv
                0x0000000008004568       0xa8 /home/tony/workdir/stm32h7xxcpplib/output/mthread.o
                0x0000000008004568                mthread::threadDetach()
 .text._ZN7mthread13threadControlE14mthreadCtrlCmdPv
                0x0000000008004610       0xa8 /home/tony/workdir/stm32h7xxcpplib/output/mthread.o
                0x0000000008004610                mthread::threadControl(mthreadCtrlCmd, void*)
 .text.__tcf_0  0x00000000080046b8        0x2 /home/tony/workdir/stm32h7xxcpplib/output/mtimer.o
 .text._ZN6mTimer24mTimerCommonCallbackFuncEPv
                0x00000000080046ba        0xe /home/tony/workdir/stm32h7xxcpplib/output/mtimer.o
                0x00000000080046ba                mTimer::mTimerCommonCallbackFunc(void*)
 .text._ZNSt8functionIFvvEEaSERKS1_.isra.0
                0x00000000080046c8       0x54 /home/tony/workdir/stm32h7xxcpplib/output/mtimer.o
 .text._ZN6mTimer11timerCreateEPKcPFvPvES2_m15mTimerStateFlag
                0x000000000800471c       0x30 /home/tony/workdir/stm32h7xxcpplib/output/mtimer.o
                0x000000000800471c                mTimer::timerCreate(char const*, void (*)(void*), void*, unsigned long, mTimerStateFlag)
 .text._ZN6mTimer11timerCreateEPKcm15mTimerStateFlagRKSt8functionIFvvEE
                0x000000000800474c       0x2c /home/tony/workdir/stm32h7xxcpplib/output/mtimer.o
                0x000000000800474c                mTimer::timerCreate(char const*, unsigned long, mTimerStateFlag, std::function<void ()> const&)
 .text._ZN6mTimer6createEPKcm15mTimerStateFlagRKSt8functionIFvvEE
                0x0000000008004778       0x60 /home/tony/workdir/stm32h7xxcpplib/output/mtimer.o
                0x0000000008004778                mTimer::create(char const*, unsigned long, mTimerStateFlag, std::function<void ()> const&)
 .text._ZN6mTimer4initEPKcPFvPvES2_m15mTimerStateFlag
                0x00000000080047d8       0x30 /home/tony/workdir/stm32h7xxcpplib/output/mtimer.o
                0x00000000080047d8                mTimer::init(char const*, void (*)(void*), void*, unsigned long, mTimerStateFlag)
 .text._ZN6mTimer4initEPKcm15mTimerStateFlagRKSt8functionIFvvEE
                0x0000000008004808       0x2c /home/tony/workdir/stm32h7xxcpplib/output/mtimer.o
                0x0000000008004808                mTimer::init(char const*, unsigned long, mTimerStateFlag, std::function<void ()> const&)
 .text._ZN6mTimer12timerControlE10mTimerCtrlPv
                0x0000000008004834       0x6c /home/tony/workdir/stm32h7xxcpplib/output/mtimer.o
                0x0000000008004834                mTimer::timerControl(mTimerCtrl, void*)
 .text._ZN6mTimer7getTimeEv
                0x00000000080048a0       0x16 /home/tony/workdir/stm32h7xxcpplib/output/mtimer.o
                0x00000000080048a0                mTimer::getTime()
 .text._ZN6mTimer14isTimerActivedEv
                0x00000000080048b6       0x1c /home/tony/workdir/stm32h7xxcpplib/output/mtimer.o
                0x00000000080048b6                mTimer::isTimerActived()
 .text._ZN6mTimer9timerInitEPFvPvES0_m15mTimerStateFlag
                0x00000000080048d2       0x18 /home/tony/workdir/stm32h7xxcpplib/output/mtimer.o
                0x00000000080048d2                mTimer::timerInit(void (*)(void*), void*, unsigned long, mTimerStateFlag)
 .text._ZN6mTimer20timerListNextTimeoutEP7mList_t
                0x00000000080048ea       0x1c /home/tony/workdir/stm32h7xxcpplib/output/mtimer.o
                0x00000000080048ea                mTimer::timerListNextTimeout(mList_t*)
 .text._ZN6mTimer11timerRemoveEP8mTimer_t
                0x0000000008004906       0x12 /home/tony/workdir/stm32h7xxcpplib/output/mtimer.o
                0x0000000008004906                mTimer::timerRemove(mTimer_t*)
 .text._ZN6mTimer11timerDeleteEv
                0x0000000008004918       0x84 /home/tony/workdir/stm32h7xxcpplib/output/mtimer.o
                0x0000000008004918                mTimer::timerDelete()
 .text._ZN6mTimer11timerDetachEv
                0x000000000800499c       0x64 /home/tony/workdir/stm32h7xxcpplib/output/mtimer.o
                0x000000000800499c                mTimer::timerDetach()
 .text._ZN6mTimer5startEv
                0x0000000008004a00       0xa4 /home/tony/workdir/stm32h7xxcpplib/output/mtimer.o
                0x0000000008004a00                mTimer::start()
 .text._ZN6mTimer16setTimerAndStartEm
                0x0000000008004aa4       0x18 /home/tony/workdir/stm32h7xxcpplib/output/mtimer.o
                0x0000000008004aa4                mTimer::setTimerAndStart(unsigned long)
 .text._ZN6mTimer4stopEv
                0x0000000008004abc       0x50 /home/tony/workdir/stm32h7xxcpplib/output/mtimer.o
                0x0000000008004abc                mTimer::stop()
 .text._ZN6mTimer10timerCheckEv
                0x0000000008004b0c       0xa4 /home/tony/workdir/stm32h7xxcpplib/output/mtimer.o
                0x0000000008004b0c                mTimer::timerCheck()
 .text.startup._GLOBAL__sub_I__ZN6mTimer14timerListTotalE
                0x0000000008004bb0       0x1c /home/tony/workdir/stm32h7xxcpplib/output/mtimer.o
 .text._Z9delayInitm
                0x0000000008004bcc        0xc /home/tony/workdir/stm32h7xxcpplib/output/delay.o
                0x0000000008004bcc                delayInit(unsigned long)
 .text._Z7delayUsm
                0x0000000008004bd8       0x30 /home/tony/workdir/stm32h7xxcpplib/output/delay.o
                0x0000000008004bd8                delayUs(unsigned long)
 .text._Z7delayMst
                0x0000000008004c08       0x18 /home/tony/workdir/stm32h7xxcpplib/output/delay.o
                0x0000000008004c08                delayMs(unsigned short)
 .text._ZN6CORTEXD2Ev
                0x0000000008004c20        0x2 /home/tony/workdir/stm32h7xxcpplib/output/systeminit.o
                0x0000000008004c20                CORTEX::~CORTEX()
                0x0000000008004c20                CORTEX::~CORTEX()
 .text._ZN11CORTEXM7MPUD2Ev
                0x0000000008004c22        0x2 /home/tony/workdir/stm32h7xxcpplib/output/systeminit.o
                0x0000000008004c22                CORTEXM7MPU::~CORTEXM7MPU()
                0x0000000008004c22                CORTEXM7MPU::~CORTEXM7MPU()
 .text._ZNSt17_Function_handlerIFvP5USARTmmEZ6hwInitvEUlS1_mmE_E10_M_managerERSt9_Any_dataRKS5_St18_Manager_operation
                0x0000000008004c24        0xa /home/tony/workdir/stm32h7xxcpplib/output/systeminit.o
 *fill*         0x0000000008004c2e        0x2 
 .text._ZNSt17_Function_handlerIFvP5USARTmmEZ6hwInitvEUlS1_mmE_E9_M_invokeERKSt9_Any_dataOS1_OmS9_
                0x0000000008004c30       0x38 /home/tony/workdir/stm32h7xxcpplib/output/systeminit.o
 .text._ZZN5USART4initEmm9USARTMode12USARTWordLen12USARTStopBit11USARTParity11USARTHwCtrlENUlP13USART_TypeDefPvE_4_FUNES6_S7_
                0x0000000008004c68       0x40 /home/tony/workdir/stm32h7xxcpplib/output/systeminit.o
                0x0000000008004c68                USART::init(unsigned long, unsigned long, USARTMode, USARTWordLen, USARTStopBit, USARTParity, USARTHwCtrl)::{lambda(USART_TypeDef*, void*)#1}::_FUN(USART_TypeDef*, void*)
 .text._ZN10RCCControl19APB1GRP1EnableClockE21RCCAPB1GRP1PerClkType.isra.0
                0x0000000008004ca8       0x20 /home/tony/workdir/stm32h7xxcpplib/output/systeminit.o
 .text._ZN10RCCControl16CalcPLLClockFreqEmmmmm.isra.0
                0x0000000008004cc8       0x4c /home/tony/workdir/stm32h7xxcpplib/output/systeminit.o
 .text._ZN10RCCControl18GetSystemClockFreqEv.isra.0
                0x0000000008004d14       0xd4 /home/tony/workdir/stm32h7xxcpplib/output/systeminit.o
 .text._ZN10RCCControl16GetHCLKClockFreqEv.isra.0
                0x0000000008004de8       0x24 /home/tony/workdir/stm32h7xxcpplib/output/systeminit.o
 .text._ZN10RCCControl17GetPCLK1ClockFreqEv.isra.0
                0x0000000008004e0c       0x24 /home/tony/workdir/stm32h7xxcpplib/output/systeminit.o
 .text._ZN10RCCControl17GetPCLK2ClockFreqEv.isra.0
                0x0000000008004e30       0x24 /home/tony/workdir/stm32h7xxcpplib/output/systeminit.o
 .text._ZN10RCCControl17GetUSARTClockFreqE21RCCUSARTxGetClkSource.isra.0
                0x0000000008004e54      0x238 /home/tony/workdir/stm32h7xxcpplib/output/systeminit.o
 .text._ZN10RCCControl11getInstanceEv
                0x000000000800508c       0x3c /home/tony/workdir/stm32h7xxcpplib/output/systeminit.o
                0x000000000800508c                RCCControl::getInstance()
 .text._ZN5USARTD2Ev
                0x00000000080050c8        0xe /home/tony/workdir/stm32h7xxcpplib/output/systeminit.o
                0x00000000080050c8                USART::~USART()
                0x00000000080050c8                USART::~USART()
 *fill*         0x00000000080050d6        0x2 
 .text._ZN5USARTC2EP13USART_TypeDefm9USARTMode12USARTWordLen12USARTStopBit11USARTParity11USARTHwCtrl
                0x00000000080050d8      0x214 /home/tony/workdir/stm32h7xxcpplib/output/systeminit.o
                0x00000000080050d8                USART::USART(USART_TypeDef*, unsigned long, USARTMode, USARTWordLen, USARTStopBit, USARTParity, USARTHwCtrl)
                0x00000000080050d8                USART::USART(USART_TypeDef*, unsigned long, USARTMode, USARTWordLen, USARTStopBit, USARTParity, USARTHwCtrl)
 .text._ZN6CORTEX11getInstanceEv
                0x00000000080052ec       0x3c /home/tony/workdir/stm32h7xxcpplib/output/systeminit.o
                0x00000000080052ec                CORTEX::getInstance()
 .text._ZN11CORTEXM7MPU11getInstanceEv
                0x0000000008005328       0x3c /home/tony/workdir/stm32h7xxcpplib/output/systeminit.o
                0x0000000008005328                CORTEXM7MPU::getInstance()
 .text._Z19mpuMemoryProtectionv
                0x0000000008005364       0x90 /home/tony/workdir/stm32h7xxcpplib/output/systeminit.o
                0x0000000008005364                mpuMemoryProtection()
 .text._Z9clockInitmmmmm
                0x00000000080053f4      0x310 /home/tony/workdir/stm32h7xxcpplib/output/systeminit.o
                0x00000000080053f4                clockInit(unsigned long, unsigned long, unsigned long, unsigned long, unsigned long)
 .text._Z16printfSysMessagev
                0x0000000008005704       0xb0 /home/tony/workdir/stm32h7xxcpplib/output/systeminit.o
                0x0000000008005704                printfSysMessage()
 .text._Z6hwInitv
                0x00000000080057b4      0x2f4 /home/tony/workdir/stm32h7xxcpplib/output/systeminit.o
                0x00000000080057b4                hwInit()
 .text.__aeabi_atexit
                0x0000000008005aa8        0xa /opt/gcc-arm-none-eabi-10.3-2021.10/bin/../lib/gcc/arm-none-eabi/10.3.1/../../../../arm-none-eabi/lib/thumb/v7e-m+fp/hard/libc_nano.a(lib_a-aeabi_atexit.o)
                0x0000000008005aa8                __aeabi_atexit
 *fill*         0x0000000008005ab2        0x2 
 .text.__cxa_atexit
                0x0000000008005ab4       0x1c /opt/gcc-arm-none-eabi-10.3-2021.10/bin/../lib/gcc/arm-none-eabi/10.3.1/../../../../arm-none-eabi/lib/thumb/v7e-m+fp/hard/libc_nano.a(lib_a-cxa_atexit.o)
                0x0000000008005ab4                __cxa_atexit
 .text.exit     0x0000000008005ad0       0x28 /opt/gcc-arm-none-eabi-10.3-2021.10/bin/../lib/gcc/arm-none-eabi/10.3.1/../../../../arm-none-eabi/lib/thumb/v7e-m+fp/hard/libc_nano.a(lib_a-exit.o)
                0x0000000008005ad0                exit
 .text.__libc_init_array
                0x0000000008005af8       0x48 /opt/gcc-arm-none-eabi-10.3-2021.10/bin/../lib/gcc/arm-none-eabi/10.3.1/../../../../arm-none-eabi/lib/thumb/v7e-m+fp/hard/libc_nano.a(lib_a-init.o)
                0x0000000008005af8                __libc_init_array
 .text.memcpy   0x0000000008005b40       0x1c /opt/gcc-arm-none-eabi-10.3-2021.10/bin/../lib/gcc/arm-none-eabi/10.3.1/../../../../arm-none-eabi/lib/thumb/v7e-m+fp/hard/libc_nano.a(lib_a-memcpy-stub.o)
                0x0000000008005b40                memcpy
 .text.memset   0x0000000008005b5c       0x10 /opt/gcc-arm-none-eabi-10.3-2021.10/bin/../lib/gcc/arm-none-eabi/10.3.1/../../../../arm-none-eabi/lib/thumb/v7e-m+fp/hard/libc_nano.a(lib_a-memset.o)
                0x0000000008005b5c                memset
 .text._printf_r
                0x0000000008005b6c       0x28 /opt/gcc-arm-none-eabi-10.3-2021.10/bin/../lib/gcc/arm-none-eabi/10.3.1/../../../../arm-none-eabi/lib/thumb/v7e-m+fp/hard/libc_nano.a(lib_a-printf.o)
                0x0000000008005b6c                _printf_r
                0x0000000008005b6c                _iprintf_r
 .text.printf   0x0000000008005b94       0x30 /opt/gcc-arm-none-eabi-10.3-2021.10/bin/../lib/gcc/arm-none-eabi/10.3.1/../../../../arm-none-eabi/lib/thumb/v7e-m+fp/hard/libc_nano.a(lib_a-printf.o)
                0x0000000008005b94                printf
                0x0000000008005b94                iprintf
 .text.strncmp  0x0000000008005bc4       0x28 /opt/gcc-arm-none-eabi-10.3-2021.10/bin/../lib/gcc/arm-none-eabi/10.3.1/../../../../arm-none-eabi/lib/thumb/v7e-m+fp/hard/libc_nano.a(lib_a-strncmp.o)
                0x0000000008005bc4                strncmp
 .text.strncpy  0x0000000008005bec       0x26 /opt/gcc-arm-none-eabi-10.3-2021.10/bin/../lib/gcc/arm-none-eabi/10.3.1/../../../../arm-none-eabi/lib/thumb/v7e-m+fp/hard/libc_nano.a(lib_a-strncpy.o)
                0x0000000008005bec                strncpy
 *fill*         0x0000000008005c12        0x2 
 .text.std      0x0000000008005c14       0x48 /opt/gcc-arm-none-eabi-10.3-2021.10/bin/../lib/gcc/arm-none-eabi/10.3.1/../../../../arm-none-eabi/lib/thumb/v7e-m+fp/hard/libc_nano.a(lib_a-findfp.o)
 .text._cleanup_r
                0x0000000008005c5c        0xc /opt/gcc-arm-none-eabi-10.3-2021.10/bin/../lib/gcc/arm-none-eabi/10.3.1/../../../../arm-none-eabi/lib/thumb/v7e-m+fp/hard/libc_nano.a(lib_a-findfp.o)
                0x0000000008005c5c                _cleanup_r
 .text.__fp_lock
                0x0000000008005c68       0x18 /opt/gcc-arm-none-eabi-10.3-2021.10/bin/../lib/gcc/arm-none-eabi/10.3.1/../../../../arm-none-eabi/lib/thumb/v7e-m+fp/hard/libc_nano.a(lib_a-findfp.o)
 .text.__fp_unlock
                0x0000000008005c80       0x18 /opt/gcc-arm-none-eabi-10.3-2021.10/bin/../lib/gcc/arm-none-eabi/10.3.1/../../../../arm-none-eabi/lib/thumb/v7e-m+fp/hard/libc_nano.a(lib_a-findfp.o)
 .text.__sfmoreglue
                0x0000000008005c98       0x2c /opt/gcc-arm-none-eabi-10.3-2021.10/bin/../lib/gcc/arm-none-eabi/10.3.1/../../../../arm-none-eabi/lib/thumb/v7e-m+fp/hard/libc_nano.a(lib_a-findfp.o)
                0x0000000008005c98                __sfmoreglue
 .text._cleanup
                0x0000000008005cc4        0xc /opt/gcc-arm-none-eabi-10.3-2021.10/bin/../lib/gcc/arm-none-eabi/10.3.1/../../../../arm-none-eabi/lib/thumb/v7e-m+fp/hard/libc_nano.a(lib_a-findfp.o)
                0x0000000008005cc4                _cleanup
 .text.__sfp_lock_acquire
                0x0000000008005cd0        0xc /opt/gcc-arm-none-eabi-10.3-2021.10/bin/../lib/gcc/arm-none-eabi/10.3.1/../../../../arm-none-eabi/lib/thumb/v7e-m+fp/hard/libc_nano.a(lib_a-findfp.o)
                0x0000000008005cd0                __sfp_lock_acquire
 .text.__sfp_lock_release
                0x0000000008005cdc        0xc /opt/gcc-arm-none-eabi-10.3-2021.10/bin/../lib/gcc/arm-none-eabi/10.3.1/../../../../arm-none-eabi/lib/thumb/v7e-m+fp/hard/libc_nano.a(lib_a-findfp.o)
                0x0000000008005cdc                __sfp_lock_release
 .text.__sinit_lock_acquire
                0x0000000008005ce8        0xc /opt/gcc-arm-none-eabi-10.3-2021.10/bin/../lib/gcc/arm-none-eabi/10.3.1/../../../../arm-none-eabi/lib/thumb/v7e-m+fp/hard/libc_nano.a(lib_a-findfp.o)
                0x0000000008005ce8                __sinit_lock_acquire
 .text.__sinit_lock_release
                0x0000000008005cf4        0xc /opt/gcc-arm-none-eabi-10.3-2021.10/bin/../lib/gcc/arm-none-eabi/10.3.1/../../../../arm-none-eabi/lib/thumb/v7e-m+fp/hard/libc_nano.a(lib_a-findfp.o)
                0x0000000008005cf4                __sinit_lock_release
 .text.__sinit  0x0000000008005d00       0x70 /opt/gcc-arm-none-eabi-10.3-2021.10/bin/../lib/gcc/arm-none-eabi/10.3.1/../../../../arm-none-eabi/lib/thumb/v7e-m+fp/hard/libc_nano.a(lib_a-findfp.o)
                0x0000000008005d00                __sinit
 .text.__sfp    0x0000000008005d70       0x8c /opt/gcc-arm-none-eabi-10.3-2021.10/bin/../lib/gcc/arm-none-eabi/10.3.1/../../../../arm-none-eabi/lib/thumb/v7e-m+fp/hard/libc_nano.a(lib_a-findfp.o)
                0x0000000008005d70                __sfp
 .text.__fp_lock_all
                0x0000000008005dfc       0x1c /opt/gcc-arm-none-eabi-10.3-2021.10/bin/../lib/gcc/arm-none-eabi/10.3.1/../../../../arm-none-eabi/lib/thumb/v7e-m+fp/hard/libc_nano.a(lib_a-findfp.o)
                0x0000000008005dfc                __fp_lock_all
 .text.__fp_unlock_all
                0x0000000008005e18       0x1c /opt/gcc-arm-none-eabi-10.3-2021.10/bin/../lib/gcc/arm-none-eabi/10.3.1/../../../../arm-none-eabi/lib/thumb/v7e-m+fp/hard/libc_nano.a(lib_a-findfp.o)
                0x0000000008005e18                __fp_unlock_all
 .text._fwalk   0x0000000008005e34       0x3a /opt/gcc-arm-none-eabi-10.3-2021.10/bin/../lib/gcc/arm-none-eabi/10.3.1/../../../../arm-none-eabi/lib/thumb/v7e-m+fp/hard/libc_nano.a(lib_a-fwalk.o)
                0x0000000008005e34                _fwalk
 .text._fwalk_reent
                0x0000000008005e6e       0x3e /opt/gcc-arm-none-eabi-10.3-2021.10/bin/../lib/gcc/arm-none-eabi/10.3.1/../../../../arm-none-eabi/lib/thumb/v7e-m+fp/hard/libc_nano.a(lib_a-fwalk.o)
                0x0000000008005e6e                _fwalk_reent
 .text.__retarget_lock_init
                0x0000000008005eac        0x2 /opt/gcc-arm-none-eabi-10.3-2021.10/bin/../lib/gcc/arm-none-eabi/10.3.1/../../../../arm-none-eabi/lib/thumb/v7e-m+fp/hard/libc_nano.a(lib_a-lock.o)
                0x0000000008005eac                __retarget_lock_init
 .text.__retarget_lock_init_recursive
                0x0000000008005eae        0x2 /opt/gcc-arm-none-eabi-10.3-2021.10/bin/../lib/gcc/arm-none-eabi/10.3.1/../../../../arm-none-eabi/lib/thumb/v7e-m+fp/hard/libc_nano.a(lib_a-lock.o)
                0x0000000008005eae                __retarget_lock_init_recursive
 .text.__retarget_lock_close
                0x0000000008005eb0        0x2 /opt/gcc-arm-none-eabi-10.3-2021.10/bin/../lib/gcc/arm-none-eabi/10.3.1/../../../../arm-none-eabi/lib/thumb/v7e-m+fp/hard/libc_nano.a(lib_a-lock.o)
                0x0000000008005eb0                __retarget_lock_close
 .text.__retarget_lock_close_recursive
                0x0000000008005eb2        0x2 /opt/gcc-arm-none-eabi-10.3-2021.10/bin/../lib/gcc/arm-none-eabi/10.3.1/../../../../arm-none-eabi/lib/thumb/v7e-m+fp/hard/libc_nano.a(lib_a-lock.o)
                0x0000000008005eb2                __retarget_lock_close_recursive
 .text.__retarget_lock_acquire
                0x0000000008005eb4        0x2 /opt/gcc-arm-none-eabi-10.3-2021.10/bin/../lib/gcc/arm-none-eabi/10.3.1/../../../../arm-none-eabi/lib/thumb/v7e-m+fp/hard/libc_nano.a(lib_a-lock.o)
                0x0000000008005eb4                __retarget_lock_acquire
 .text.__retarget_lock_acquire_recursive
                0x0000000008005eb6        0x2 /opt/gcc-arm-none-eabi-10.3-2021.10/bin/../lib/gcc/arm-none-eabi/10.3.1/../../../../arm-none-eabi/lib/thumb/v7e-m+fp/hard/libc_nano.a(lib_a-lock.o)
                0x0000000008005eb6                __retarget_lock_acquire_recursive
 .text.__retarget_lock_try_acquire
                0x0000000008005eb8        0x4 /opt/gcc-arm-none-eabi-10.3-2021.10/bin/../lib/gcc/arm-none-eabi/10.3.1/../../../../arm-none-eabi/lib/thumb/v7e-m+fp/hard/libc_nano.a(lib_a-lock.o)
                0x0000000008005eb8                __retarget_lock_try_acquire
 .text.__retarget_lock_try_acquire_recursive
                0x0000000008005ebc        0x4 /opt/gcc-arm-none-eabi-10.3-2021.10/bin/../lib/gcc/arm-none-eabi/10.3.1/../../../../arm-none-eabi/lib/thumb/v7e-m+fp/hard/libc_nano.a(lib_a-lock.o)
                0x0000000008005ebc                __retarget_lock_try_acquire_recursive
 .text.__retarget_lock_release
                0x0000000008005ec0        0x2 /opt/gcc-arm-none-eabi-10.3-2021.10/bin/../lib/gcc/arm-none-eabi/10.3.1/../../../../arm-none-eabi/lib/thumb/v7e-m+fp/hard/libc_nano.a(lib_a-lock.o)
                0x0000000008005ec0                __retarget_lock_release
 .text.__retarget_lock_release_recursive
                0x0000000008005ec2        0x2 /opt/gcc-arm-none-eabi-10.3-2021.10/bin/../lib/gcc/arm-none-eabi/10.3.1/../../../../arm-none-eabi/lib/thumb/v7e-m+fp/hard/libc_nano.a(lib_a-lock.o)
                0x0000000008005ec2                __retarget_lock_release_recursive
 .text.sbrk_aligned
                0x0000000008005ec4       0x40 /opt/gcc-arm-none-eabi-10.3-2021.10/bin/../lib/gcc/arm-none-eabi/10.3.1/../../../../arm-none-eabi/lib/thumb/v7e-m+fp/hard/libc_nano.a(lib_a-nano-mallocr.o)
 .text._malloc_r
                0x0000000008005f04       0xe8 /opt/gcc-arm-none-eabi-10.3-2021.10/bin/../lib/gcc/arm-none-eabi/10.3.1/../../../../arm-none-eabi/lib/thumb/v7e-m+fp/hard/libc_nano.a(lib_a-nano-mallocr.o)
                0x0000000008005f04                _malloc_r
 .text.__sfputc_r
                0x0000000008005fec       0x2e /opt/gcc-arm-none-eabi-10.3-2021.10/bin/../lib/gcc/arm-none-eabi/10.3.1/../../../../arm-none-eabi/lib/thumb/v7e-m+fp/hard/libc_nano.a(lib_a-nano-vfprintf.o)
 .text.__sfputs_r
                0x000000000800601a       0x24 /opt/gcc-arm-none-eabi-10.3-2021.10/bin/../lib/gcc/arm-none-eabi/10.3.1/../../../../arm-none-eabi/lib/thumb/v7e-m+fp/hard/libc_nano.a(lib_a-nano-vfprintf.o)
                0x000000000800601a                __sfputs_r
 .text.__sprint_r
                0x000000000800603e       0x1a /opt/gcc-arm-none-eabi-10.3-2021.10/bin/../lib/gcc/arm-none-eabi/10.3.1/../../../../arm-none-eabi/lib/thumb/v7e-m+fp/hard/libc_nano.a(lib_a-nano-vfprintf.o)
                0x000000000800603e                __sprint_r
 .text._vfprintf_r
                0x0000000008006058      0x260 /opt/gcc-arm-none-eabi-10.3-2021.10/bin/../lib/gcc/arm-none-eabi/10.3.1/../../../../arm-none-eabi/lib/thumb/v7e-m+fp/hard/libc_nano.a(lib_a-nano-vfprintf.o)
                0x0000000008006058                _vfiprintf_r
                0x0000000008006058                _vfprintf_r
 .text.vfprintf
                0x00000000080062b8       0x14 /opt/gcc-arm-none-eabi-10.3-2021.10/bin/../lib/gcc/arm-none-eabi/10.3.1/../../../../arm-none-eabi/lib/thumb/v7e-m+fp/hard/libc_nano.a(lib_a-nano-vfprintf.o)
                0x00000000080062b8                vfiprintf
                0x00000000080062b8                vfprintf
 .text._printf_common
                0x00000000080062cc       0xda /opt/gcc-arm-none-eabi-10.3-2021.10/bin/../lib/gcc/arm-none-eabi/10.3.1/../../../../arm-none-eabi/lib/thumb/v7e-m+fp/hard/libc_nano.a(lib_a-nano-vfprintf_i.o)
                0x00000000080062cc                _printf_common
 *fill*         0x00000000080063a6        0x2 
 .text._printf_i
                0x00000000080063a8      0x24c /opt/gcc-arm-none-eabi-10.3-2021.10/bin/../lib/gcc/arm-none-eabi/10.3.1/../../../../arm-none-eabi/lib/thumb/v7e-m+fp/hard/libc_nano.a(lib_a-nano-vfprintf_i.o)
                0x00000000080063a8                _printf_i
 .text._sbrk_r  0x00000000080065f4       0x20 /opt/gcc-arm-none-eabi-10.3-2021.10/bin/../lib/gcc/arm-none-eabi/10.3.1/../../../../arm-none-eabi/lib/thumb/v7e-m+fp/hard/libc_nano.a(lib_a-sbrkr.o)
                0x00000000080065f4                _sbrk_r
 .text.__sread  0x0000000008006614       0x22 /opt/gcc-arm-none-eabi-10.3-2021.10/bin/../lib/gcc/arm-none-eabi/10.3.1/../../../../arm-none-eabi/lib/thumb/v7e-m+fp/hard/libc_nano.a(lib_a-stdio.o)
                0x0000000008006614                __sread
 .text.__seofread
                0x0000000008006636        0x4 /opt/gcc-arm-none-eabi-10.3-2021.10/bin/../lib/gcc/arm-none-eabi/10.3.1/../../../../arm-none-eabi/lib/thumb/v7e-m+fp/hard/libc_nano.a(lib_a-stdio.o)
                0x0000000008006636                __seofread
 .text.__swrite
                0x000000000800663a       0x38 /opt/gcc-arm-none-eabi-10.3-2021.10/bin/../lib/gcc/arm-none-eabi/10.3.1/../../../../arm-none-eabi/lib/thumb/v7e-m+fp/hard/libc_nano.a(lib_a-stdio.o)
                0x000000000800663a                __swrite
 .text.__sseek  0x0000000008006672       0x24 /opt/gcc-arm-none-eabi-10.3-2021.10/bin/../lib/gcc/arm-none-eabi/10.3.1/../../../../arm-none-eabi/lib/thumb/v7e-m+fp/hard/libc_nano.a(lib_a-stdio.o)
                0x0000000008006672                __sseek
 .text.__sclose
                0x0000000008006696        0x8 /opt/gcc-arm-none-eabi-10.3-2021.10/bin/../lib/gcc/arm-none-eabi/10.3.1/../../../../arm-none-eabi/lib/thumb/v7e-m+fp/hard/libc_nano.a(lib_a-stdio.o)
                0x0000000008006696                __sclose
 *fill*         0x000000000800669e        0x2 
 .text.__swbuf_r
                0x00000000080066a0       0xa4 /opt/gcc-arm-none-eabi-10.3-2021.10/bin/../lib/gcc/arm-none-eabi/10.3.1/../../../../arm-none-eabi/lib/thumb/v7e-m+fp/hard/libc_nano.a(lib_a-wbuf.o)
                0x00000000080066a0                __swbuf_r
 .text.__swbuf  0x0000000008006744       0x10 /opt/gcc-arm-none-eabi-10.3-2021.10/bin/../lib/gcc/arm-none-eabi/10.3.1/../../../../arm-none-eabi/lib/thumb/v7e-m+fp/hard/libc_nano.a(lib_a-wbuf.o)
                0x0000000008006744                __swbuf
 .text._write_r
                0x0000000008006754       0x24 /opt/gcc-arm-none-eabi-10.3-2021.10/bin/../lib/gcc/arm-none-eabi/10.3.1/../../../../arm-none-eabi/lib/thumb/v7e-m+fp/hard/libc_nano.a(lib_a-writer.o)
                0x0000000008006754                _write_r
 .text.__swsetup_r
                0x0000000008006778       0xdc /opt/gcc-arm-none-eabi-10.3-2021.10/bin/../lib/gcc/arm-none-eabi/10.3.1/../../../../arm-none-eabi/lib/thumb/v7e-m+fp/hard/libc_nano.a(lib_a-wsetup.o)
                0x0000000008006778                __swsetup_r
 .text._close_r
                0x0000000008006854       0x20 /opt/gcc-arm-none-eabi-10.3-2021.10/bin/../lib/gcc/arm-none-eabi/10.3.1/../../../../arm-none-eabi/lib/thumb/v7e-m+fp/hard/libc_nano.a(lib_a-closer.o)
                0x0000000008006854                _close_r
 .text.__sflush_r
                0x0000000008006874      0x10c /opt/gcc-arm-none-eabi-10.3-2021.10/bin/../lib/gcc/arm-none-eabi/10.3.1/../../../../arm-none-eabi/lib/thumb/v7e-m+fp/hard/libc_nano.a(lib_a-fflush.o)
                0x0000000008006874                __sflush_r
 .text._fflush_r
                0x0000000008006980       0x78 /opt/gcc-arm-none-eabi-10.3-2021.10/bin/../lib/gcc/arm-none-eabi/10.3.1/../../../../arm-none-eabi/lib/thumb/v7e-m+fp/hard/libc_nano.a(lib_a-fflush.o)
                0x0000000008006980                _fflush_r
 .text.fflush   0x00000000080069f8       0x24 /opt/gcc-arm-none-eabi-10.3-2021.10/bin/../lib/gcc/arm-none-eabi/10.3.1/../../../../arm-none-eabi/lib/thumb/v7e-m+fp/hard/libc_nano.a(lib_a-fflush.o)
                0x00000000080069f8                fflush
 .text.__sfvwrite_r
                0x0000000008006a1c      0x294 /opt/gcc-arm-none-eabi-10.3-2021.10/bin/../lib/gcc/arm-none-eabi/10.3.1/../../../../arm-none-eabi/lib/thumb/v7e-m+fp/hard/libc_nano.a(lib_a-fvwrite.o)
                0x0000000008006a1c                __sfvwrite_r
 .text._lseek_r
                0x0000000008006cb0       0x24 /opt/gcc-arm-none-eabi-10.3-2021.10/bin/../lib/gcc/arm-none-eabi/10.3.1/../../../../arm-none-eabi/lib/thumb/v7e-m+fp/hard/libc_nano.a(lib_a-lseekr.o)
                0x0000000008006cb0                _lseek_r
 .text.__swhatbuf_r
                0x0000000008006cd4       0x4a /opt/gcc-arm-none-eabi-10.3-2021.10/bin/../lib/gcc/arm-none-eabi/10.3.1/../../../../arm-none-eabi/lib/thumb/v7e-m+fp/hard/libc_nano.a(lib_a-makebuf.o)
                0x0000000008006cd4                __swhatbuf_r
 *fill*         0x0000000008006d1e        0x2 
 .text.__smakebuf_r
                0x0000000008006d20       0x80 /opt/gcc-arm-none-eabi-10.3-2021.10/bin/../lib/gcc/arm-none-eabi/10.3.1/../../../../arm-none-eabi/lib/thumb/v7e-m+fp/hard/libc_nano.a(lib_a-makebuf.o)
                0x0000000008006d20                __smakebuf_r
 .text.memmove  0x0000000008006da0       0x34 /opt/gcc-arm-none-eabi-10.3-2021.10/bin/../lib/gcc/arm-none-eabi/10.3.1/../../../../arm-none-eabi/lib/thumb/v7e-m+fp/hard/libc_nano.a(lib_a-memmove.o)
                0x0000000008006da0                memmove
 .text.__malloc_lock
                0x0000000008006dd4        0xc /opt/gcc-arm-none-eabi-10.3-2021.10/bin/../lib/gcc/arm-none-eabi/10.3.1/../../../../arm-none-eabi/lib/thumb/v7e-m+fp/hard/libc_nano.a(lib_a-mlock.o)
                0x0000000008006dd4                __malloc_lock
 .text.__malloc_unlock
                0x0000000008006de0        0xc /opt/gcc-arm-none-eabi-10.3-2021.10/bin/../lib/gcc/arm-none-eabi/10.3.1/../../../../arm-none-eabi/lib/thumb/v7e-m+fp/hard/libc_nano.a(lib_a-mlock.o)
                0x0000000008006de0                __malloc_unlock
 .text._free_r  0x0000000008006dec       0x98 /opt/gcc-arm-none-eabi-10.3-2021.10/bin/../lib/gcc/arm-none-eabi/10.3.1/../../../../arm-none-eabi/lib/thumb/v7e-m+fp/hard/libc_nano.a(lib_a-nano-freer.o)
                0x0000000008006dec                _free_r
 .text._realloc_r
                0x0000000008006e84       0x5e /opt/gcc-arm-none-eabi-10.3-2021.10/bin/../lib/gcc/arm-none-eabi/10.3.1/../../../../arm-none-eabi/lib/thumb/v7e-m+fp/hard/libc_nano.a(lib_a-nano-reallocr.o)
                0x0000000008006e84                _realloc_r
 *fill*         0x0000000008006ee2        0x2 
 .text._read_r  0x0000000008006ee4       0x24 /opt/gcc-arm-none-eabi-10.3-2021.10/bin/../lib/gcc/arm-none-eabi/10.3.1/../../../../arm-none-eabi/lib/thumb/v7e-m+fp/hard/libc_nano.a(lib_a-readr.o)
                0x0000000008006ee4                _read_r
 .text.cleanup_glue
                0x0000000008006f08       0x1a /opt/gcc-arm-none-eabi-10.3-2021.10/bin/../lib/gcc/arm-none-eabi/10.3.1/../../../../arm-none-eabi/lib/thumb/v7e-m+fp/hard/libc_nano.a(lib_a-reent.o)
                0x0000000008006f08                cleanup_glue
 *fill*         0x0000000008006f22        0x2 
 .text._reclaim_reent
                0x0000000008006f24       0xb8 /opt/gcc-arm-none-eabi-10.3-2021.10/bin/../lib/gcc/arm-none-eabi/10.3.1/../../../../arm-none-eabi/lib/thumb/v7e-m+fp/hard/libc_nano.a(lib_a-reent.o)
                0x0000000008006f24                _reclaim_reent
 .text._fstat_r
                0x0000000008006fdc       0x24 /opt/gcc-arm-none-eabi-10.3-2021.10/bin/../lib/gcc/arm-none-eabi/10.3.1/../../../../arm-none-eabi/lib/thumb/v7e-m+fp/hard/libc_nano.a(lib_a-fstatr.o)
                0x0000000008006fdc                _fstat_r
 .text._isatty_r
                0x0000000008007000       0x20 /opt/gcc-arm-none-eabi-10.3-2021.10/bin/../lib/gcc/arm-none-eabi/10.3.1/../../../../arm-none-eabi/lib/thumb/v7e-m+fp/hard/libc_nano.a(lib_a-isattyr.o)
                0x0000000008007000                _isatty_r
 .text._malloc_usable_size_r
                0x0000000008007020       0x10 /opt/gcc-arm-none-eabi-10.3-2021.10/bin/../lib/gcc/arm-none-eabi/10.3.1/../../../../arm-none-eabi/lib/thumb/v7e-m+fp/hard/libc_nano.a(lib_a-nano-msizer.o)
                0x0000000008007020                _malloc_usable_size_r
 .text.__cxa_guard_acquire
                0x0000000008007030       0x18 /opt/gcc-arm-none-eabi-10.3-2021.10/bin/../lib/gcc/arm-none-eabi/10.3.1/../../../../arm-none-eabi/lib/thumb/v7e-m+fp/hard/libstdc++_nano.a(guard.o)
                0x0000000008007030                __cxa_guard_acquire
 .text.__cxa_guard_abort
                0x0000000008007048        0x6 /opt/gcc-arm-none-eabi-10.3-2021.10/bin/../lib/gcc/arm-none-eabi/10.3.1/../../../../arm-none-eabi/lib/thumb/v7e-m+fp/hard/libstdc++_nano.a(guard.o)
                0x0000000008007048                __cxa_guard_abort
 .text.__cxa_guard_release
                0x000000000800704e        0x6 /opt/gcc-arm-none-eabi-10.3-2021.10/bin/../lib/gcc/arm-none-eabi/10.3.1/../../../../arm-none-eabi/lib/thumb/v7e-m+fp/hard/libstdc++_nano.a(guard.o)
                0x000000000800704e                __cxa_guard_release
 .text._close   0x0000000008007054       0x10 /opt/gcc-arm-none-eabi-10.3-2021.10/bin/../lib/gcc/arm-none-eabi/10.3.1/../../../../arm-none-eabi/lib/thumb/v7e-m+fp/hard/libnosys.a(close.o)
                0x0000000008007054                _close
 .text._fstat   0x0000000008007064       0x10 /opt/gcc-arm-none-eabi-10.3-2021.10/bin/../lib/gcc/arm-none-eabi/10.3.1/../../../../arm-none-eabi/lib/thumb/v7e-m+fp/hard/libnosys.a(fstat.o)
                0x0000000008007064                _fstat
 .text._isatty  0x0000000008007074       0x10 /opt/gcc-arm-none-eabi-10.3-2021.10/bin/../lib/gcc/arm-none-eabi/10.3.1/../../../../arm-none-eabi/lib/thumb/v7e-m+fp/hard/libnosys.a(isatty.o)
                0x0000000008007074                _isatty
 .text._lseek   0x0000000008007084       0x10 /opt/gcc-arm-none-eabi-10.3-2021.10/bin/../lib/gcc/arm-none-eabi/10.3.1/../../../../arm-none-eabi/lib/thumb/v7e-m+fp/hard/libnosys.a(lseek.o)
                0x0000000008007084                _lseek
 .text._sbrk    0x0000000008007094       0x1c /opt/gcc-arm-none-eabi-10.3-2021.10/bin/../lib/gcc/arm-none-eabi/10.3.1/../../../../arm-none-eabi/lib/thumb/v7e-m+fp/hard/libnosys.a(sbrk.o)
                0x0000000008007094                _sbrk
 .text._exit    0x00000000080070b0        0x4 /opt/gcc-arm-none-eabi-10.3-2021.10/bin/../lib/gcc/arm-none-eabi/10.3.1/../../../../arm-none-eabi/lib/thumb/v7e-m+fp/hard/libnosys.a(_exit.o)
                0x00000000080070b0                _exit
 *(.glue_7)
 .glue_7        0x00000000080070b4        0x0 linker stubs
 *(.glue_7t)
 .glue_7t       0x00000000080070b4        0x0 linker stubs
 *(.eh_frame)
 .eh_frame      0x00000000080070b4        0x0 /opt/gcc-arm-none-eabi-10.3-2021.10/bin/../lib/gcc/arm-none-eabi/10.3.1/thumb/v7e-m+fp/hard/crtbegin.o
 .eh_frame      0x00000000080070b4        0x4 /opt/gcc-arm-none-eabi-10.3-2021.10/bin/../lib/gcc/arm-none-eabi/10.3.1/thumb/v7e-m+fp/hard/crtend.o
 *(.init)
 .init          0x00000000080070b8        0x4 /opt/gcc-arm-none-eabi-10.3-2021.10/bin/../lib/gcc/arm-none-eabi/10.3.1/thumb/v7e-m+fp/hard/crti.o
                0x00000000080070b8                _init
 .init          0x00000000080070bc        0x8 /opt/gcc-arm-none-eabi-10.3-2021.10/bin/../lib/gcc/arm-none-eabi/10.3.1/thumb/v7e-m+fp/hard/crtn.o
 *(.fini)
 .fini          0x00000000080070c4        0x4 /opt/gcc-arm-none-eabi-10.3-2021.10/bin/../lib/gcc/arm-none-eabi/10.3.1/thumb/v7e-m+fp/hard/crti.o
                0x00000000080070c4                _fini
 .fini          0x00000000080070c8        0x8 /opt/gcc-arm-none-eabi-10.3-2021.10/bin/../lib/gcc/arm-none-eabi/10.3.1/thumb/v7e-m+fp/hard/crtn.o
                0x00000000080070d0                . = ALIGN (0x4)
                0x00000000080070d0                _etext = .

.vfp11_veneer   0x00000000080070d0        0x0
 .vfp11_veneer  0x00000000080070d0        0x0 linker stubs

.v4_bx          0x00000000080070d0        0x0
 .v4_bx         0x00000000080070d0        0x0 linker stubs

.iplt           0x00000000080070d0        0x0
 .iplt          0x00000000080070d0        0x0 /opt/gcc-arm-none-eabi-10.3-2021.10/bin/../lib/gcc/arm-none-eabi/10.3.1/thumb/v7e-m+fp/hard/crtbegin.o

.rodata         0x00000000080070d0      0x578
                0x00000000080070d0                . = ALIGN (0x4)
 *(.rodata)
 .rodata        0x00000000080070d0       0x24 /opt/gcc-arm-none-eabi-10.3-2021.10/bin/../lib/gcc/arm-none-eabi/10.3.1/thumb/v7e-m+fp/hard/crtbegin.o
 .rodata        0x00000000080070f4       0x24 /opt/gcc-arm-none-eabi-10.3-2021.10/bin/../lib/gcc/arm-none-eabi/10.3.1/thumb/v7e-m+fp/hard/crtend.o
 *(.rodata*)
 .rodata.D1CorePrescTable
                0x0000000008007118       0x10 /home/tony/workdir/stm32h7xxcpplib/output/system_stm32h7xx.o
                0x0000000008007118                D1CorePrescTable
 .rodata._ZNSt17_Function_handlerIFvvEZ4mainEUlvE_E9_M_invokeERKSt9_Any_data.str1.1
                0x0000000008007128       0x21 /home/tony/workdir/stm32h7xxcpplib/output/main.o
 .rodata.main.str1.1
                0x0000000008007149       0x1f /home/tony/workdir/stm32h7xxcpplib/output/main.o
 .rodata._ZN10mComponets7startUpEv.str1.1
                0x0000000008007168       0x2c /home/tony/workdir/stm32h7xxcpplib/output/mcomponents.o
 .rodata._ZN5mIdle14threadIdleInitEv.str1.1
                0x0000000008007194        0x6 /home/tony/workdir/stm32h7xxcpplib/output/midle.o
 .rodata._ZN10mSemaphore11semCreateExEPKcm8mIpcFlag.str1.1
                0x000000000800719a        0xc /home/tony/workdir/stm32h7xxcpplib/output/mipc.o
                                         0x23 (size before relaxing)
 .rodata._ZN10mSemaphore9semDeleteEv.str1.1
                0x00000000080071a6        0xa /home/tony/workdir/stm32h7xxcpplib/output/mipc.o
 .rodata._ZN10mSemaphore4initEPKcm8mIpcFlag.str1.1
                0x00000000080071b0        0x5 /home/tony/workdir/stm32h7xxcpplib/output/mipc.o
 .rodata._ZN10mSemaphore6detachEv.str1.1
                0x00000000080071b5        0x7 /home/tony/workdir/stm32h7xxcpplib/output/mipc.o
 .rodata._ZN10mSemaphore7semTakeEl.str1.1
                0x00000000080071bc        0x8 /home/tony/workdir/stm32h7xxcpplib/output/mipc.o
 .rodata._ZN10mSemaphore10semReleaseEv.str1.1
                0x00000000080071c4        0xb /home/tony/workdir/stm32h7xxcpplib/output/mipc.o
 .rodata._ZN10mSemaphore10semControlE7mIpcCmdPv.str1.1
                0x00000000080071cf        0xb /home/tony/workdir/stm32h7xxcpplib/output/mipc.o
 .rodata._ZN9mKservice19__lowest_bit_bitmapE
                0x00000000080071da      0x100 /home/tony/workdir/stm32h7xxcpplib/output/mkservice.o
                0x00000000080071da                mKservice::__lowest_bit_bitmap
 .rodata._ZN4mMem4initEPvS0_.str1.1
                0x00000000080072da       0x43 /home/tony/workdir/stm32h7xxcpplib/output/mmem.o
 .rodata._ZN4mMem6mallocEm.str1.1
                0x000000000800731d        0x7 /home/tony/workdir/stm32h7xxcpplib/output/mmem.o
                                         0x1e (size before relaxing)
 .rodata._ZN4mMem9plugHolesEP9heapMem_t.str1.1
                0x0000000008007324        0xa /home/tony/workdir/stm32h7xxcpplib/output/mmem.o
 .rodata._ZN4mMem4freeEPv.str1.1
                0x000000000800732e       0x51 /home/tony/workdir/stm32h7xxcpplib/output/mmem.o
 .rodata._ZN7mObject10objectInitEP9mObject_t16mObjectClassTypePKc.str1.1
                0x000000000800737f        0xb /home/tony/workdir/stm32h7xxcpplib/output/mobject.o
                                         0x22 (size before relaxing)
 .rodata._ZN7mObject12objectDetachEP9mObject_t.str1.1
                0x000000000800738a        0xd /home/tony/workdir/stm32h7xxcpplib/output/mobject.o
 .rodata._ZN7mObject9objectAddEP9mObject_t16mObjectClassTypePKc.str1.1
                0x0000000008007397        0xa /home/tony/workdir/stm32h7xxcpplib/output/mobject.o
 .rodata._ZN7mObject12objectRemoveEP9mObject_t.str1.1
                0x00000000080073a1        0xd /home/tony/workdir/stm32h7xxcpplib/output/mobject.o
 .rodata._ZN7mObject13objectGetTypeEP9mObject_t.str1.1
                0x00000000080073ae        0xe /home/tony/workdir/stm32h7xxcpplib/output/mobject.o
 .rodata._ZN7mObject20objectIsSystemobjectEP9mObject_t.str1.1
                0x00000000080073bc       0x15 /home/tony/workdir/stm32h7xxcpplib/output/mobject.o
 .rodata._ZN9mSchedule19schedulerStackCheckEP8thread_t.str1.1
                0x00000000080073d1       0x63 /home/tony/workdir/stm32h7xxcpplib/output/mscheduler.o
                                         0x7a (size before relaxing)
 .rodata._ZN9mSchedule20scheduleInsertThreadEP8thread_t.str1.1
                0x0000000008007434       0x15 /home/tony/workdir/stm32h7xxcpplib/output/mscheduler.o
 .rodata._ZN9mSchedule20scheduleRemoveThreadEP8thread_t.str1.1
                0x0000000008007449       0x15 /home/tony/workdir/stm32h7xxcpplib/output/mscheduler.o
 .rodata._ZN7mthread13threadTimeoutEPv.str1.1
                0x000000000800745e        0xe /home/tony/workdir/stm32h7xxcpplib/output/mthread.o
                                         0x25 (size before relaxing)
 .rodata._ZN7mthread13threadSuspendEP8thread_t.str1.1
                0x000000000800746c        0xe /home/tony/workdir/stm32h7xxcpplib/output/mthread.o
 .rodata._ZN7mthread11threadSleepEm.str1.1
                0x000000000800747a        0xc /home/tony/workdir/stm32h7xxcpplib/output/mthread.o
 .rodata._ZN7mthread16threadDelayUntilEPmm.str1.1
                0x0000000008007486       0x11 /home/tony/workdir/stm32h7xxcpplib/output/mthread.o
 .rodata._ZN7mthread12threadResumeEv.str1.1
                0x0000000008007497        0xd /home/tony/workdir/stm32h7xxcpplib/output/mthread.o
 .rodata._ZN7mthread7startupEv.str1.1
                0x00000000080074a4        0x8 /home/tony/workdir/stm32h7xxcpplib/output/mthread.o
 .rodata._ZN7mthread4initEPKcPFvPvES2_S2_mhm.str1.1
                0x00000000080074ac        0x5 /home/tony/workdir/stm32h7xxcpplib/output/mthread.o
 .rodata._ZN7mthread12threadDeleteEv.str1.1
                0x00000000080074ac        0xd /home/tony/workdir/stm32h7xxcpplib/output/mthread.o
 .rodata._ZN7mthread12threadDetachEv.str1.1
                0x00000000080074b9        0xd /home/tony/workdir/stm32h7xxcpplib/output/mthread.o
 .rodata._ZN7mthread13threadControlE14mthreadCtrlCmdPv.str1.1
                0x00000000080074c6        0xe /home/tony/workdir/stm32h7xxcpplib/output/mthread.o
 .rodata._ZN6mTimer12timerControlE10mTimerCtrlPv.str1.1
                0x00000000080074d4        0xd /home/tony/workdir/stm32h7xxcpplib/output/mtimer.o
                                         0x24 (size before relaxing)
 .rodata._ZN6mTimer11timerDeleteEv.str1.1
                0x00000000080074e1        0xc /home/tony/workdir/stm32h7xxcpplib/output/mtimer.o
 .rodata._ZN6mTimer11timerDetachEv.str1.1
                0x00000000080074ed        0xc /home/tony/workdir/stm32h7xxcpplib/output/mtimer.o
 .rodata._ZN6mTimer5startEv.str1.1
                0x00000000080074f9        0x6 /home/tony/workdir/stm32h7xxcpplib/output/mtimer.o
 .rodata._ZN6mTimer4stopEv.str1.1
                0x00000000080074ff        0x5 /home/tony/workdir/stm32h7xxcpplib/output/mtimer.o
 .rodata._ZNSt17_Function_handlerIFvP5USARTmmEZ6hwInitvEUlS1_mmE_E9_M_invokeERKSt9_Any_dataOS1_OmS9_.str1.1
                0x0000000008007504       0x25 /home/tony/workdir/stm32h7xxcpplib/output/systeminit.o
 .rodata._Z16printfSysMessagev.str1.1
                0x0000000008007529       0x6d /home/tony/workdir/stm32h7xxcpplib/output/systeminit.o
 .rodata._ZL10PrescTable
                0x0000000008007596       0x10 /home/tony/workdir/stm32h7xxcpplib/output/systeminit.o
 *fill*         0x00000000080075a6        0x2 
 .rodata.__cxa_atexit_dummy
                0x00000000080075a8        0x4 /opt/gcc-arm-none-eabi-10.3-2021.10/bin/../lib/gcc/arm-none-eabi/10.3.1/../../../../arm-none-eabi/lib/thumb/v7e-m+fp/hard/libc_nano.a(lib_a-cxa_atexit.o)
                0x00000000080075a8                __cxa_atexit_dummy
 .rodata._global_impure_ptr
                0x00000000080075ac        0x4 /opt/gcc-arm-none-eabi-10.3-2021.10/bin/../lib/gcc/arm-none-eabi/10.3.1/../../../../arm-none-eabi/lib/thumb/v7e-m+fp/hard/libc_nano.a(lib_a-impure.o)
                0x00000000080075ac                _global_impure_ptr
 .rodata.__on_exit_args
                0x00000000080075b0        0x4 /opt/gcc-arm-none-eabi-10.3-2021.10/bin/../lib/gcc/arm-none-eabi/10.3.1/../../../../arm-none-eabi/lib/thumb/v7e-m+fp/hard/libc_nano.a(lib_a-on_exit_args.o)
                0x00000000080075b0                __on_exit_args
 .rodata.__sf_fake_stderr
                0x00000000080075b4       0x20 /opt/gcc-arm-none-eabi-10.3-2021.10/bin/../lib/gcc/arm-none-eabi/10.3.1/../../../../arm-none-eabi/lib/thumb/v7e-m+fp/hard/libc_nano.a(lib_a-findfp.o)
                0x00000000080075b4                __sf_fake_stderr
 .rodata.__sf_fake_stdin
                0x00000000080075d4       0x20 /opt/gcc-arm-none-eabi-10.3-2021.10/bin/../lib/gcc/arm-none-eabi/10.3.1/../../../../arm-none-eabi/lib/thumb/v7e-m+fp/hard/libc_nano.a(lib_a-findfp.o)
                0x00000000080075d4                __sf_fake_stdin
 .rodata.__sf_fake_stdout
                0x00000000080075f4       0x20 /opt/gcc-arm-none-eabi-10.3-2021.10/bin/../lib/gcc/arm-none-eabi/10.3.1/../../../../arm-none-eabi/lib/thumb/v7e-m+fp/hard/libc_nano.a(lib_a-findfp.o)
                0x00000000080075f4                __sf_fake_stdout
 .rodata._vfprintf_r.str1.1
                0x0000000008007614       0x11 /opt/gcc-arm-none-eabi-10.3-2021.10/bin/../lib/gcc/arm-none-eabi/10.3.1/../../../../arm-none-eabi/lib/thumb/v7e-m+fp/hard/libc_nano.a(lib_a-nano-vfprintf.o)
 .rodata._printf_i.str1.1
                0x0000000008007625       0x22 /opt/gcc-arm-none-eabi-10.3-2021.10/bin/../lib/gcc/arm-none-eabi/10.3.1/../../../../arm-none-eabi/lib/thumb/v7e-m+fp/hard/libc_nano.a(lib_a-nano-vfprintf_i.o)
                0x0000000008007648                . = ALIGN (0x4)
 *fill*         0x0000000008007647        0x1 

.ARM.extab      0x0000000008007648        0x0
                0x0000000008007648                . = ALIGN (0x4)
 *(.ARM.extab* .gnu.linkonce.armextab.*)
 .ARM.extab     0x0000000008007648        0x0 /opt/gcc-arm-none-eabi-10.3-2021.10/bin/../lib/gcc/arm-none-eabi/10.3.1/../../../../arm-none-eabi/lib/thumb/v7e-m+fp/hard/crt0.o
                0x0000000008007648                . = ALIGN (0x4)

.ARM            0x0000000008007648        0x8
                0x0000000008007648                . = ALIGN (0x4)
                0x0000000008007648                __exidx_start = .
 *(.ARM.exidx*)
 .ARM.exidx     0x0000000008007648        0x8 /opt/gcc-arm-none-eabi-10.3-2021.10/bin/../lib/gcc/arm-none-eabi/10.3.1/../../../../arm-none-eabi/lib/thumb/v7e-m+fp/hard/crt0.o
                                         0x10 (size before relaxing)
                0x0000000008007650                __exidx_end = .
                0x0000000008007650                . = ALIGN (0x4)

.rel.dyn        0x0000000008007650        0x0
 .rel.iplt      0x0000000008007650        0x0 /opt/gcc-arm-none-eabi-10.3-2021.10/bin/../lib/gcc/arm-none-eabi/10.3.1/thumb/v7e-m+fp/hard/crtbegin.o

.preinit_array  0x0000000008007650        0x0
                0x0000000008007650                . = ALIGN (0x4)
                0x0000000008007650                PROVIDE (__preinit_array_start = .)
 *(.preinit_array*)
                0x0000000008007650                PROVIDE (__preinit_array_end = .)
                0x0000000008007650                . = ALIGN (0x4)

.init_array     0x0000000008007650        0x8
                0x0000000008007650                . = ALIGN (0x4)
                0x0000000008007650                PROVIDE (__init_array_start = .)
 *(SORT_BY_NAME(.init_array.*))
 *(.init_array*)
 .init_array    0x0000000008007650        0x4 /opt/gcc-arm-none-eabi-10.3-2021.10/bin/../lib/gcc/arm-none-eabi/10.3.1/thumb/v7e-m+fp/hard/crtbegin.o
 .init_array    0x0000000008007654        0x4 /home/tony/workdir/stm32h7xxcpplib/output/mtimer.o
                0x0000000008007658                PROVIDE (__init_array_end = .)
                0x0000000008007658                . = ALIGN (0x4)

.fini_array     0x0000000008007658        0x4
                0x0000000008007658                . = ALIGN (0x4)
                [!provide]                        PROVIDE (__fini_array_start = .)
 *(SORT_BY_NAME(.fini_array.*))
 *(.fini_array*)
 .fini_array    0x0000000008007658        0x4 /opt/gcc-arm-none-eabi-10.3-2021.10/bin/../lib/gcc/arm-none-eabi/10.3.1/thumb/v7e-m+fp/hard/crtbegin.o
                [!provide]                        PROVIDE (__fini_array_end = .)
                0x000000000800765c                . = ALIGN (0x4)
                0x000000000800765c                _sidata = LOADADDR (.data)

.data           0x0000000024000000       0x88 load address 0x000000000800765c
                0x0000000024000000                . = ALIGN (0x4)
                0x0000000024000000                _sdata = .
 *(.data)
 .data          0x0000000024000000        0x0 /opt/gcc-arm-none-eabi-10.3-2021.10/bin/../lib/gcc/arm-none-eabi/10.3.1/thumb/v7e-m+fp/hard/crti.o
 .data          0x0000000024000000        0x4 /opt/gcc-arm-none-eabi-10.3-2021.10/bin/../lib/gcc/arm-none-eabi/10.3.1/thumb/v7e-m+fp/hard/crtbegin.o
                0x0000000024000000                __dso_handle
 .data          0x0000000024000004        0x0 /opt/gcc-arm-none-eabi-10.3-2021.10/bin/../lib/gcc/arm-none-eabi/10.3.1/../../../../arm-none-eabi/lib/thumb/v7e-m+fp/hard/crt0.o
 .data          0x0000000024000004        0x0 /home/tony/workdir/stm32h7xxcpplib/output/startup_stm32h750xx.o
 .data          0x0000000024000004        0x0 /home/tony/workdir/stm32h7xxcpplib/output/context_gcc.o
 .data          0x0000000024000004        0x0 /home/tony/workdir/stm32h7xxcpplib/output/isrcommon.o
 .data          0x0000000024000004        0x0 /home/tony/workdir/stm32h7xxcpplib/output/w25qxx.o
 .data          0x0000000024000004        0x0 /home/tony/workdir/stm32h7xxcpplib/output/sdram.o
 .data          0x0000000024000004        0x0 /home/tony/workdir/stm32h7xxcpplib/output/stm32h7xx_it.o
 .data          0x0000000024000004        0x0 /home/tony/workdir/stm32h7xxcpplib/output/system_stm32h7xx.o
 .data          0x0000000024000004        0x0 /home/tony/workdir/stm32h7xxcpplib/output/printfremap.o
 .data          0x0000000024000004        0x0 /home/tony/workdir/stm32h7xxcpplib/output/main.o
 .data          0x0000000024000004        0x0 /home/tony/workdir/stm32h7xxcpplib/output/board.o
 .data          0x0000000024000004        0x0 /home/tony/workdir/stm32h7xxcpplib/output/cpuport.o
 .data          0x0000000024000004        0x0 /home/tony/workdir/stm32h7xxcpplib/output/mclock.o
 .data          0x0000000024000004        0x0 /home/tony/workdir/stm32h7xxcpplib/output/mcomponents.o
 .data          0x0000000024000004        0x0 /home/tony/workdir/stm32h7xxcpplib/output/midle.o
 .data          0x0000000024000004        0x0 /home/tony/workdir/stm32h7xxcpplib/output/mipc.o
 .data          0x0000000024000004        0x0 /home/tony/workdir/stm32h7xxcpplib/output/mirq.o
 .data          0x0000000024000004        0x0 /home/tony/workdir/stm32h7xxcpplib/output/mkservice.o
 .data          0x0000000024000004        0x0 /home/tony/workdir/stm32h7xxcpplib/output/mmem.o
 .data          0x0000000024000004        0x0 /home/tony/workdir/stm32h7xxcpplib/output/mobject.o
 .data          0x0000000024000004        0x0 /home/tony/workdir/stm32h7xxcpplib/output/mscheduler.o
 .data          0x0000000024000004        0x0 /home/tony/workdir/stm32h7xxcpplib/output/mthread.o
 .data          0x0000000024000004        0x0 /home/tony/workdir/stm32h7xxcpplib/output/mtimer.o
 .data          0x0000000024000004        0x0 /home/tony/workdir/stm32h7xxcpplib/output/delay.o
 .data          0x0000000024000004        0x0 /home/tony/workdir/stm32h7xxcpplib/output/systeminit.o
 .data          0x0000000024000004        0x0 /opt/gcc-arm-none-eabi-10.3-2021.10/bin/../lib/gcc/arm-none-eabi/10.3.1/../../../../arm-none-eabi/lib/thumb/v7e-m+fp/hard/libc_nano.a(lib_a-aeabi_atexit.o)
 .data          0x0000000024000004        0x0 /opt/gcc-arm-none-eabi-10.3-2021.10/bin/../lib/gcc/arm-none-eabi/10.3.1/../../../../arm-none-eabi/lib/thumb/v7e-m+fp/hard/libc_nano.a(lib_a-cxa_atexit.o)
 .data          0x0000000024000004        0x0 /opt/gcc-arm-none-eabi-10.3-2021.10/bin/../lib/gcc/arm-none-eabi/10.3.1/../../../../arm-none-eabi/lib/thumb/v7e-m+fp/hard/libc_nano.a(lib_a-exit.o)
 .data          0x0000000024000004        0x0 /opt/gcc-arm-none-eabi-10.3-2021.10/bin/../lib/gcc/arm-none-eabi/10.3.1/../../../../arm-none-eabi/lib/thumb/v7e-m+fp/hard/libc_nano.a(lib_a-impure.o)
 .data          0x0000000024000004        0x0 /opt/gcc-arm-none-eabi-10.3-2021.10/bin/../lib/gcc/arm-none-eabi/10.3.1/../../../../arm-none-eabi/lib/thumb/v7e-m+fp/hard/libc_nano.a(lib_a-init.o)
 .data          0x0000000024000004        0x0 /opt/gcc-arm-none-eabi-10.3-2021.10/bin/../lib/gcc/arm-none-eabi/10.3.1/../../../../arm-none-eabi/lib/thumb/v7e-m+fp/hard/libc_nano.a(lib_a-memcpy-stub.o)
 .data          0x0000000024000004        0x0 /opt/gcc-arm-none-eabi-10.3-2021.10/bin/../lib/gcc/arm-none-eabi/10.3.1/../../../../arm-none-eabi/lib/thumb/v7e-m+fp/hard/libc_nano.a(lib_a-memset.o)
 .data          0x0000000024000004        0x0 /opt/gcc-arm-none-eabi-10.3-2021.10/bin/../lib/gcc/arm-none-eabi/10.3.1/../../../../arm-none-eabi/lib/thumb/v7e-m+fp/hard/libc_nano.a(lib_a-on_exit_args.o)
 .data          0x0000000024000004        0x0 /opt/gcc-arm-none-eabi-10.3-2021.10/bin/../lib/gcc/arm-none-eabi/10.3.1/../../../../arm-none-eabi/lib/thumb/v7e-m+fp/hard/libc_nano.a(lib_a-printf.o)
 .data          0x0000000024000004        0x0 /opt/gcc-arm-none-eabi-10.3-2021.10/bin/../lib/gcc/arm-none-eabi/10.3.1/../../../../arm-none-eabi/lib/thumb/v7e-m+fp/hard/libc_nano.a(lib_a-strncmp.o)
 .data          0x0000000024000004        0x0 /opt/gcc-arm-none-eabi-10.3-2021.10/bin/../lib/gcc/arm-none-eabi/10.3.1/../../../../arm-none-eabi/lib/thumb/v7e-m+fp/hard/libc_nano.a(lib_a-strncpy.o)
 .data          0x0000000024000004        0x0 /opt/gcc-arm-none-eabi-10.3-2021.10/bin/../lib/gcc/arm-none-eabi/10.3.1/../../../../arm-none-eabi/lib/thumb/v7e-m+fp/hard/libc_nano.a(lib_a-findfp.o)
 .data          0x0000000024000004        0x0 /opt/gcc-arm-none-eabi-10.3-2021.10/bin/../lib/gcc/arm-none-eabi/10.3.1/../../../../arm-none-eabi/lib/thumb/v7e-m+fp/hard/libc_nano.a(lib_a-fwalk.o)
 .data          0x0000000024000004        0x0 /opt/gcc-arm-none-eabi-10.3-2021.10/bin/../lib/gcc/arm-none-eabi/10.3.1/../../../../arm-none-eabi/lib/thumb/v7e-m+fp/hard/libc_nano.a(lib_a-lock.o)
 .data          0x0000000024000004        0x0 /opt/gcc-arm-none-eabi-10.3-2021.10/bin/../lib/gcc/arm-none-eabi/10.3.1/../../../../arm-none-eabi/lib/thumb/v7e-m+fp/hard/libc_nano.a(lib_a-nano-mallocr.o)
 .data          0x0000000024000004        0x0 /opt/gcc-arm-none-eabi-10.3-2021.10/bin/../lib/gcc/arm-none-eabi/10.3.1/../../../../arm-none-eabi/lib/thumb/v7e-m+fp/hard/libc_nano.a(lib_a-nano-vfprintf.o)
 .data          0x0000000024000004        0x0 /opt/gcc-arm-none-eabi-10.3-2021.10/bin/../lib/gcc/arm-none-eabi/10.3.1/../../../../arm-none-eabi/lib/thumb/v7e-m+fp/hard/libc_nano.a(lib_a-nano-vfprintf_i.o)
 .data          0x0000000024000004        0x0 /opt/gcc-arm-none-eabi-10.3-2021.10/bin/../lib/gcc/arm-none-eabi/10.3.1/../../../../arm-none-eabi/lib/thumb/v7e-m+fp/hard/libc_nano.a(lib_a-sbrkr.o)
 .data          0x0000000024000004        0x0 /opt/gcc-arm-none-eabi-10.3-2021.10/bin/../lib/gcc/arm-none-eabi/10.3.1/../../../../arm-none-eabi/lib/thumb/v7e-m+fp/hard/libc_nano.a(lib_a-stdio.o)
 .data          0x0000000024000004        0x0 /opt/gcc-arm-none-eabi-10.3-2021.10/bin/../lib/gcc/arm-none-eabi/10.3.1/../../../../arm-none-eabi/lib/thumb/v7e-m+fp/hard/libc_nano.a(lib_a-wbuf.o)
 .data          0x0000000024000004        0x0 /opt/gcc-arm-none-eabi-10.3-2021.10/bin/../lib/gcc/arm-none-eabi/10.3.1/../../../../arm-none-eabi/lib/thumb/v7e-m+fp/hard/libc_nano.a(lib_a-writer.o)
 .data          0x0000000024000004        0x0 /opt/gcc-arm-none-eabi-10.3-2021.10/bin/../lib/gcc/arm-none-eabi/10.3.1/../../../../arm-none-eabi/lib/thumb/v7e-m+fp/hard/libc_nano.a(lib_a-wsetup.o)
 .data          0x0000000024000004        0x0 /opt/gcc-arm-none-eabi-10.3-2021.10/bin/../lib/gcc/arm-none-eabi/10.3.1/../../../../arm-none-eabi/lib/thumb/v7e-m+fp/hard/libc_nano.a(lib_a-closer.o)
 .data          0x0000000024000004        0x0 /opt/gcc-arm-none-eabi-10.3-2021.10/bin/../lib/gcc/arm-none-eabi/10.3.1/../../../../arm-none-eabi/lib/thumb/v7e-m+fp/hard/libc_nano.a(lib_a-fflush.o)
 .data          0x0000000024000004        0x0 /opt/gcc-arm-none-eabi-10.3-2021.10/bin/../lib/gcc/arm-none-eabi/10.3.1/../../../../arm-none-eabi/lib/thumb/v7e-m+fp/hard/libc_nano.a(lib_a-fvwrite.o)
 .data          0x0000000024000004        0x0 /opt/gcc-arm-none-eabi-10.3-2021.10/bin/../lib/gcc/arm-none-eabi/10.3.1/../../../../arm-none-eabi/lib/thumb/v7e-m+fp/hard/libc_nano.a(lib_a-lseekr.o)
 .data          0x0000000024000004        0x0 /opt/gcc-arm-none-eabi-10.3-2021.10/bin/../lib/gcc/arm-none-eabi/10.3.1/../../../../arm-none-eabi/lib/thumb/v7e-m+fp/hard/libc_nano.a(lib_a-makebuf.o)
 .data          0x0000000024000004        0x0 /opt/gcc-arm-none-eabi-10.3-2021.10/bin/../lib/gcc/arm-none-eabi/10.3.1/../../../../arm-none-eabi/lib/thumb/v7e-m+fp/hard/libc_nano.a(lib_a-memchr.o)
 .data          0x0000000024000004        0x0 /opt/gcc-arm-none-eabi-10.3-2021.10/bin/../lib/gcc/arm-none-eabi/10.3.1/../../../../arm-none-eabi/lib/thumb/v7e-m+fp/hard/libc_nano.a(lib_a-memmove.o)
 .data          0x0000000024000004        0x0 /opt/gcc-arm-none-eabi-10.3-2021.10/bin/../lib/gcc/arm-none-eabi/10.3.1/../../../../arm-none-eabi/lib/thumb/v7e-m+fp/hard/libc_nano.a(lib_a-mlock.o)
 .data          0x0000000024000004        0x0 /opt/gcc-arm-none-eabi-10.3-2021.10/bin/../lib/gcc/arm-none-eabi/10.3.1/../../../../arm-none-eabi/lib/thumb/v7e-m+fp/hard/libc_nano.a(lib_a-nano-freer.o)
 .data          0x0000000024000004        0x0 /opt/gcc-arm-none-eabi-10.3-2021.10/bin/../lib/gcc/arm-none-eabi/10.3.1/../../../../arm-none-eabi/lib/thumb/v7e-m+fp/hard/libc_nano.a(lib_a-nano-reallocr.o)
 .data          0x0000000024000004        0x0 /opt/gcc-arm-none-eabi-10.3-2021.10/bin/../lib/gcc/arm-none-eabi/10.3.1/../../../../arm-none-eabi/lib/thumb/v7e-m+fp/hard/libc_nano.a(lib_a-readr.o)
 .data          0x0000000024000004        0x0 /opt/gcc-arm-none-eabi-10.3-2021.10/bin/../lib/gcc/arm-none-eabi/10.3.1/../../../../arm-none-eabi/lib/thumb/v7e-m+fp/hard/libc_nano.a(lib_a-reent.o)
 .data          0x0000000024000004        0x0 /opt/gcc-arm-none-eabi-10.3-2021.10/bin/../lib/gcc/arm-none-eabi/10.3.1/../../../../arm-none-eabi/lib/thumb/v7e-m+fp/hard/libc_nano.a(lib_a-fstatr.o)
 .data          0x0000000024000004        0x0 /opt/gcc-arm-none-eabi-10.3-2021.10/bin/../lib/gcc/arm-none-eabi/10.3.1/../../../../arm-none-eabi/lib/thumb/v7e-m+fp/hard/libc_nano.a(lib_a-isattyr.o)
 .data          0x0000000024000004        0x0 /opt/gcc-arm-none-eabi-10.3-2021.10/bin/../lib/gcc/arm-none-eabi/10.3.1/../../../../arm-none-eabi/lib/thumb/v7e-m+fp/hard/libc_nano.a(lib_a-nano-msizer.o)
 .data          0x0000000024000004        0x0 /opt/gcc-arm-none-eabi-10.3-2021.10/bin/../lib/gcc/arm-none-eabi/10.3.1/../../../../arm-none-eabi/lib/thumb/v7e-m+fp/hard/libstdc++_nano.a(guard.o)
 .data          0x0000000024000004        0x0 /opt/gcc-arm-none-eabi-10.3-2021.10/bin/../lib/gcc/arm-none-eabi/10.3.1/../../../../arm-none-eabi/lib/thumb/v7e-m+fp/hard/libnosys.a(close.o)
 .data          0x0000000024000004        0x0 /opt/gcc-arm-none-eabi-10.3-2021.10/bin/../lib/gcc/arm-none-eabi/10.3.1/../../../../arm-none-eabi/lib/thumb/v7e-m+fp/hard/libnosys.a(fstat.o)
 .data          0x0000000024000004        0x0 /opt/gcc-arm-none-eabi-10.3-2021.10/bin/../lib/gcc/arm-none-eabi/10.3.1/../../../../arm-none-eabi/lib/thumb/v7e-m+fp/hard/libnosys.a(isatty.o)
 .data          0x0000000024000004        0x0 /opt/gcc-arm-none-eabi-10.3-2021.10/bin/../lib/gcc/arm-none-eabi/10.3.1/../../../../arm-none-eabi/lib/thumb/v7e-m+fp/hard/libnosys.a(lseek.o)
 .data          0x0000000024000004        0x0 /opt/gcc-arm-none-eabi-10.3-2021.10/bin/../lib/gcc/arm-none-eabi/10.3.1/../../../../arm-none-eabi/lib/thumb/v7e-m+fp/hard/libnosys.a(sbrk.o)
 .data          0x0000000024000004        0x0 /opt/gcc-arm-none-eabi-10.3-2021.10/bin/../lib/gcc/arm-none-eabi/10.3.1/../../../../arm-none-eabi/lib/thumb/v7e-m+fp/hard/libnosys.a(_exit.o)
 .data          0x0000000024000004        0x0 /opt/gcc-arm-none-eabi-10.3-2021.10/bin/../lib/gcc/arm-none-eabi/10.3.1/thumb/v7e-m+fp/hard/crtend.o
 .data          0x0000000024000004        0x0 /opt/gcc-arm-none-eabi-10.3-2021.10/bin/../lib/gcc/arm-none-eabi/10.3.1/thumb/v7e-m+fp/hard/crtn.o
 *(.data*)
 .data.uwTickFreq
                0x0000000024000004        0x1 /home/tony/workdir/stm32h7xxcpplib/output/isrcommon.o
                0x0000000024000004                uwTickFreq
 *fill*         0x0000000024000005        0x3 
 .data.uwTickPrio
                0x0000000024000008        0x4 /home/tony/workdir/stm32h7xxcpplib/output/isrcommon.o
                0x0000000024000008                uwTickPrio
 .data.SystemCoreClock
                0x000000002400000c        0x4 /home/tony/workdir/stm32h7xxcpplib/output/system_stm32h7xx.o
                0x000000002400000c                SystemCoreClock
 .data.SystemD2Clock
                0x0000000024000010        0x4 /home/tony/workdir/stm32h7xxcpplib/output/system_stm32h7xx.o
                0x0000000024000010                SystemD2Clock
 .data.bliink   0x0000000024000014       0x10 /home/tony/workdir/stm32h7xxcpplib/output/main.o
                0x0000000024000014                bliink
 .data._impure_ptr
                0x0000000024000024        0x4 /opt/gcc-arm-none-eabi-10.3-2021.10/bin/../lib/gcc/arm-none-eabi/10.3.1/../../../../arm-none-eabi/lib/thumb/v7e-m+fp/hard/libc_nano.a(lib_a-impure.o)
                0x0000000024000024                _impure_ptr
 .data.impure_data
                0x0000000024000028       0x60 /opt/gcc-arm-none-eabi-10.3-2021.10/bin/../lib/gcc/arm-none-eabi/10.3.1/../../../../arm-none-eabi/lib/thumb/v7e-m+fp/hard/libc_nano.a(lib_a-impure.o)
                0x0000000024000088                . = ALIGN (0x4)
                0x0000000024000088                _edata = .

.igot.plt       0x0000000024000088        0x0 load address 0x00000000080076e4
 .igot.plt      0x0000000024000088        0x0 /opt/gcc-arm-none-eabi-10.3-2021.10/bin/../lib/gcc/arm-none-eabi/10.3.1/thumb/v7e-m+fp/hard/crtbegin.o
                0x0000000024000088                . = ALIGN (0x4)

.bss            0x0000000024000088      0xb40 load address 0x00000000080076e4
                0x0000000024000088                _sbss = .
                0x0000000024000088                __bss_start__ = _sbss
 *(.bss)
 .bss           0x0000000024000088        0x0 /opt/gcc-arm-none-eabi-10.3-2021.10/bin/../lib/gcc/arm-none-eabi/10.3.1/thumb/v7e-m+fp/hard/crti.o
 .bss           0x0000000024000088       0x1c /opt/gcc-arm-none-eabi-10.3-2021.10/bin/../lib/gcc/arm-none-eabi/10.3.1/thumb/v7e-m+fp/hard/crtbegin.o
 .bss           0x00000000240000a4        0x0 /opt/gcc-arm-none-eabi-10.3-2021.10/bin/../lib/gcc/arm-none-eabi/10.3.1/../../../../arm-none-eabi/lib/thumb/v7e-m+fp/hard/crt0.o
 .bss           0x00000000240000a4        0x0 /home/tony/workdir/stm32h7xxcpplib/output/startup_stm32h750xx.o
 .bss           0x00000000240000a4        0x0 /home/tony/workdir/stm32h7xxcpplib/output/context_gcc.o
 .bss           0x00000000240000a4        0x0 /home/tony/workdir/stm32h7xxcpplib/output/isrcommon.o
 .bss           0x00000000240000a4        0x0 /home/tony/workdir/stm32h7xxcpplib/output/w25qxx.o
 .bss           0x00000000240000a4        0x0 /home/tony/workdir/stm32h7xxcpplib/output/sdram.o
 .bss           0x00000000240000a4        0x0 /home/tony/workdir/stm32h7xxcpplib/output/stm32h7xx_it.o
 .bss           0x00000000240000a4        0x0 /home/tony/workdir/stm32h7xxcpplib/output/system_stm32h7xx.o
 .bss           0x00000000240000a4        0x0 /home/tony/workdir/stm32h7xxcpplib/output/printfremap.o
 .bss           0x00000000240000a4        0x0 /home/tony/workdir/stm32h7xxcpplib/output/main.o
 .bss           0x00000000240000a4        0x0 /home/tony/workdir/stm32h7xxcpplib/output/board.o
 .bss           0x00000000240000a4        0x0 /home/tony/workdir/stm32h7xxcpplib/output/cpuport.o
 .bss           0x00000000240000a4        0x0 /home/tony/workdir/stm32h7xxcpplib/output/mclock.o
 .bss           0x00000000240000a4        0x0 /home/tony/workdir/stm32h7xxcpplib/output/mcomponents.o
 .bss           0x00000000240000a4        0x0 /home/tony/workdir/stm32h7xxcpplib/output/midle.o
 .bss           0x00000000240000a4        0x0 /home/tony/workdir/stm32h7xxcpplib/output/mipc.o
 .bss           0x00000000240000a4        0x0 /home/tony/workdir/stm32h7xxcpplib/output/mirq.o
 .bss           0x00000000240000a4        0x0 /home/tony/workdir/stm32h7xxcpplib/output/mkservice.o
 .bss           0x00000000240000a4        0x0 /home/tony/workdir/stm32h7xxcpplib/output/mmem.o
 .bss           0x00000000240000a4        0x0 /home/tony/workdir/stm32h7xxcpplib/output/mobject.o
 .bss           0x00000000240000a4        0x0 /home/tony/workdir/stm32h7xxcpplib/output/mscheduler.o
 .bss           0x00000000240000a4        0x0 /home/tony/workdir/stm32h7xxcpplib/output/mthread.o
 .bss           0x00000000240000a4        0x0 /home/tony/workdir/stm32h7xxcpplib/output/mtimer.o
 .bss           0x00000000240000a4        0x0 /home/tony/workdir/stm32h7xxcpplib/output/delay.o
 .bss           0x00000000240000a4        0x0 /home/tony/workdir/stm32h7xxcpplib/output/systeminit.o
 .bss           0x00000000240000a4        0x0 /opt/gcc-arm-none-eabi-10.3-2021.10/bin/../lib/gcc/arm-none-eabi/10.3.1/../../../../arm-none-eabi/lib/thumb/v7e-m+fp/hard/libc_nano.a(lib_a-aeabi_atexit.o)
 .bss           0x00000000240000a4        0x0 /opt/gcc-arm-none-eabi-10.3-2021.10/bin/../lib/gcc/arm-none-eabi/10.3.1/../../../../arm-none-eabi/lib/thumb/v7e-m+fp/hard/libc_nano.a(lib_a-cxa_atexit.o)
 .bss           0x00000000240000a4        0x0 /opt/gcc-arm-none-eabi-10.3-2021.10/bin/../lib/gcc/arm-none-eabi/10.3.1/../../../../arm-none-eabi/lib/thumb/v7e-m+fp/hard/libc_nano.a(lib_a-exit.o)
 .bss           0x00000000240000a4        0x0 /opt/gcc-arm-none-eabi-10.3-2021.10/bin/../lib/gcc/arm-none-eabi/10.3.1/../../../../arm-none-eabi/lib/thumb/v7e-m+fp/hard/libc_nano.a(lib_a-impure.o)
 .bss           0x00000000240000a4        0x0 /opt/gcc-arm-none-eabi-10.3-2021.10/bin/../lib/gcc/arm-none-eabi/10.3.1/../../../../arm-none-eabi/lib/thumb/v7e-m+fp/hard/libc_nano.a(lib_a-init.o)
 .bss           0x00000000240000a4        0x0 /opt/gcc-arm-none-eabi-10.3-2021.10/bin/../lib/gcc/arm-none-eabi/10.3.1/../../../../arm-none-eabi/lib/thumb/v7e-m+fp/hard/libc_nano.a(lib_a-memcpy-stub.o)
 .bss           0x00000000240000a4        0x0 /opt/gcc-arm-none-eabi-10.3-2021.10/bin/../lib/gcc/arm-none-eabi/10.3.1/../../../../arm-none-eabi/lib/thumb/v7e-m+fp/hard/libc_nano.a(lib_a-memset.o)
 .bss           0x00000000240000a4        0x0 /opt/gcc-arm-none-eabi-10.3-2021.10/bin/../lib/gcc/arm-none-eabi/10.3.1/../../../../arm-none-eabi/lib/thumb/v7e-m+fp/hard/libc_nano.a(lib_a-on_exit_args.o)
 .bss           0x00000000240000a4        0x0 /opt/gcc-arm-none-eabi-10.3-2021.10/bin/../lib/gcc/arm-none-eabi/10.3.1/../../../../arm-none-eabi/lib/thumb/v7e-m+fp/hard/libc_nano.a(lib_a-printf.o)
 .bss           0x00000000240000a4        0x0 /opt/gcc-arm-none-eabi-10.3-2021.10/bin/../lib/gcc/arm-none-eabi/10.3.1/../../../../arm-none-eabi/lib/thumb/v7e-m+fp/hard/libc_nano.a(lib_a-strncmp.o)
 .bss           0x00000000240000a4        0x0 /opt/gcc-arm-none-eabi-10.3-2021.10/bin/../lib/gcc/arm-none-eabi/10.3.1/../../../../arm-none-eabi/lib/thumb/v7e-m+fp/hard/libc_nano.a(lib_a-strncpy.o)
 .bss           0x00000000240000a4        0x0 /opt/gcc-arm-none-eabi-10.3-2021.10/bin/../lib/gcc/arm-none-eabi/10.3.1/../../../../arm-none-eabi/lib/thumb/v7e-m+fp/hard/libc_nano.a(lib_a-findfp.o)
 .bss           0x00000000240000a4        0x0 /opt/gcc-arm-none-eabi-10.3-2021.10/bin/../lib/gcc/arm-none-eabi/10.3.1/../../../../arm-none-eabi/lib/thumb/v7e-m+fp/hard/libc_nano.a(lib_a-fwalk.o)
 .bss           0x00000000240000a4        0x0 /opt/gcc-arm-none-eabi-10.3-2021.10/bin/../lib/gcc/arm-none-eabi/10.3.1/../../../../arm-none-eabi/lib/thumb/v7e-m+fp/hard/libc_nano.a(lib_a-lock.o)
 .bss           0x00000000240000a4        0x0 /opt/gcc-arm-none-eabi-10.3-2021.10/bin/../lib/gcc/arm-none-eabi/10.3.1/../../../../arm-none-eabi/lib/thumb/v7e-m+fp/hard/libc_nano.a(lib_a-nano-mallocr.o)
 .bss           0x00000000240000a4        0x0 /opt/gcc-arm-none-eabi-10.3-2021.10/bin/../lib/gcc/arm-none-eabi/10.3.1/../../../../arm-none-eabi/lib/thumb/v7e-m+fp/hard/libc_nano.a(lib_a-nano-vfprintf.o)
 .bss           0x00000000240000a4        0x0 /opt/gcc-arm-none-eabi-10.3-2021.10/bin/../lib/gcc/arm-none-eabi/10.3.1/../../../../arm-none-eabi/lib/thumb/v7e-m+fp/hard/libc_nano.a(lib_a-nano-vfprintf_i.o)
 .bss           0x00000000240000a4        0x0 /opt/gcc-arm-none-eabi-10.3-2021.10/bin/../lib/gcc/arm-none-eabi/10.3.1/../../../../arm-none-eabi/lib/thumb/v7e-m+fp/hard/libc_nano.a(lib_a-sbrkr.o)
 .bss           0x00000000240000a4        0x0 /opt/gcc-arm-none-eabi-10.3-2021.10/bin/../lib/gcc/arm-none-eabi/10.3.1/../../../../arm-none-eabi/lib/thumb/v7e-m+fp/hard/libc_nano.a(lib_a-stdio.o)
 .bss           0x00000000240000a4        0x0 /opt/gcc-arm-none-eabi-10.3-2021.10/bin/../lib/gcc/arm-none-eabi/10.3.1/../../../../arm-none-eabi/lib/thumb/v7e-m+fp/hard/libc_nano.a(lib_a-wbuf.o)
 .bss           0x00000000240000a4        0x0 /opt/gcc-arm-none-eabi-10.3-2021.10/bin/../lib/gcc/arm-none-eabi/10.3.1/../../../../arm-none-eabi/lib/thumb/v7e-m+fp/hard/libc_nano.a(lib_a-writer.o)
 .bss           0x00000000240000a4        0x0 /opt/gcc-arm-none-eabi-10.3-2021.10/bin/../lib/gcc/arm-none-eabi/10.3.1/../../../../arm-none-eabi/lib/thumb/v7e-m+fp/hard/libc_nano.a(lib_a-wsetup.o)
 .bss           0x00000000240000a4        0x0 /opt/gcc-arm-none-eabi-10.3-2021.10/bin/../lib/gcc/arm-none-eabi/10.3.1/../../../../arm-none-eabi/lib/thumb/v7e-m+fp/hard/libc_nano.a(lib_a-closer.o)
 .bss           0x00000000240000a4        0x0 /opt/gcc-arm-none-eabi-10.3-2021.10/bin/../lib/gcc/arm-none-eabi/10.3.1/../../../../arm-none-eabi/lib/thumb/v7e-m+fp/hard/libc_nano.a(lib_a-fflush.o)
 .bss           0x00000000240000a4        0x0 /opt/gcc-arm-none-eabi-10.3-2021.10/bin/../lib/gcc/arm-none-eabi/10.3.1/../../../../arm-none-eabi/lib/thumb/v7e-m+fp/hard/libc_nano.a(lib_a-fvwrite.o)
 .bss           0x00000000240000a4        0x0 /opt/gcc-arm-none-eabi-10.3-2021.10/bin/../lib/gcc/arm-none-eabi/10.3.1/../../../../arm-none-eabi/lib/thumb/v7e-m+fp/hard/libc_nano.a(lib_a-lseekr.o)
 .bss           0x00000000240000a4        0x0 /opt/gcc-arm-none-eabi-10.3-2021.10/bin/../lib/gcc/arm-none-eabi/10.3.1/../../../../arm-none-eabi/lib/thumb/v7e-m+fp/hard/libc_nano.a(lib_a-makebuf.o)
 .bss           0x00000000240000a4        0x0 /opt/gcc-arm-none-eabi-10.3-2021.10/bin/../lib/gcc/arm-none-eabi/10.3.1/../../../../arm-none-eabi/lib/thumb/v7e-m+fp/hard/libc_nano.a(lib_a-memchr.o)
 .bss           0x00000000240000a4        0x0 /opt/gcc-arm-none-eabi-10.3-2021.10/bin/../lib/gcc/arm-none-eabi/10.3.1/../../../../arm-none-eabi/lib/thumb/v7e-m+fp/hard/libc_nano.a(lib_a-memmove.o)
 .bss           0x00000000240000a4        0x0 /opt/gcc-arm-none-eabi-10.3-2021.10/bin/../lib/gcc/arm-none-eabi/10.3.1/../../../../arm-none-eabi/lib/thumb/v7e-m+fp/hard/libc_nano.a(lib_a-mlock.o)
 .bss           0x00000000240000a4        0x0 /opt/gcc-arm-none-eabi-10.3-2021.10/bin/../lib/gcc/arm-none-eabi/10.3.1/../../../../arm-none-eabi/lib/thumb/v7e-m+fp/hard/libc_nano.a(lib_a-nano-freer.o)
 .bss           0x00000000240000a4        0x0 /opt/gcc-arm-none-eabi-10.3-2021.10/bin/../lib/gcc/arm-none-eabi/10.3.1/../../../../arm-none-eabi/lib/thumb/v7e-m+fp/hard/libc_nano.a(lib_a-nano-reallocr.o)
 .bss           0x00000000240000a4        0x0 /opt/gcc-arm-none-eabi-10.3-2021.10/bin/../lib/gcc/arm-none-eabi/10.3.1/../../../../arm-none-eabi/lib/thumb/v7e-m+fp/hard/libc_nano.a(lib_a-readr.o)
 .bss           0x00000000240000a4        0x0 /opt/gcc-arm-none-eabi-10.3-2021.10/bin/../lib/gcc/arm-none-eabi/10.3.1/../../../../arm-none-eabi/lib/thumb/v7e-m+fp/hard/libc_nano.a(lib_a-reent.o)
 .bss           0x00000000240000a4        0x0 /opt/gcc-arm-none-eabi-10.3-2021.10/bin/../lib/gcc/arm-none-eabi/10.3.1/../../../../arm-none-eabi/lib/thumb/v7e-m+fp/hard/libc_nano.a(lib_a-fstatr.o)
 .bss           0x00000000240000a4        0x0 /opt/gcc-arm-none-eabi-10.3-2021.10/bin/../lib/gcc/arm-none-eabi/10.3.1/../../../../arm-none-eabi/lib/thumb/v7e-m+fp/hard/libc_nano.a(lib_a-isattyr.o)
 .bss           0x00000000240000a4        0x0 /opt/gcc-arm-none-eabi-10.3-2021.10/bin/../lib/gcc/arm-none-eabi/10.3.1/../../../../arm-none-eabi/lib/thumb/v7e-m+fp/hard/libc_nano.a(lib_a-nano-msizer.o)
 .bss           0x00000000240000a4        0x0 /opt/gcc-arm-none-eabi-10.3-2021.10/bin/../lib/gcc/arm-none-eabi/10.3.1/../../../../arm-none-eabi/lib/thumb/v7e-m+fp/hard/libstdc++_nano.a(guard.o)
 .bss           0x00000000240000a4        0x0 /opt/gcc-arm-none-eabi-10.3-2021.10/bin/../lib/gcc/arm-none-eabi/10.3.1/../../../../arm-none-eabi/lib/thumb/v7e-m+fp/hard/libnosys.a(close.o)
 .bss           0x00000000240000a4        0x0 /opt/gcc-arm-none-eabi-10.3-2021.10/bin/../lib/gcc/arm-none-eabi/10.3.1/../../../../arm-none-eabi/lib/thumb/v7e-m+fp/hard/libnosys.a(fstat.o)
 .bss           0x00000000240000a4        0x0 /opt/gcc-arm-none-eabi-10.3-2021.10/bin/../lib/gcc/arm-none-eabi/10.3.1/../../../../arm-none-eabi/lib/thumb/v7e-m+fp/hard/libnosys.a(isatty.o)
 .bss           0x00000000240000a4        0x0 /opt/gcc-arm-none-eabi-10.3-2021.10/bin/../lib/gcc/arm-none-eabi/10.3.1/../../../../arm-none-eabi/lib/thumb/v7e-m+fp/hard/libnosys.a(lseek.o)
 .bss           0x00000000240000a4        0x0 /opt/gcc-arm-none-eabi-10.3-2021.10/bin/../lib/gcc/arm-none-eabi/10.3.1/../../../../arm-none-eabi/lib/thumb/v7e-m+fp/hard/libnosys.a(sbrk.o)
 .bss           0x00000000240000a4        0x0 /opt/gcc-arm-none-eabi-10.3-2021.10/bin/../lib/gcc/arm-none-eabi/10.3.1/../../../../arm-none-eabi/lib/thumb/v7e-m+fp/hard/libnosys.a(_exit.o)
 .bss           0x00000000240000a4        0x0 /opt/gcc-arm-none-eabi-10.3-2021.10/bin/../lib/gcc/arm-none-eabi/10.3.1/thumb/v7e-m+fp/hard/crtend.o
 .bss           0x00000000240000a4        0x0 /opt/gcc-arm-none-eabi-10.3-2021.10/bin/../lib/gcc/arm-none-eabi/10.3.1/thumb/v7e-m+fp/hard/crtn.o
 *(.bss*)
 .bss.BDMAIsrCbBuff
                0x00000000240000a4       0x60 /home/tony/workdir/stm32h7xxcpplib/output/isrcommon.o
 .bss.DMAIsrCbBuff
                0x0000000024000104       0xc0 /home/tony/workdir/stm32h7xxcpplib/output/isrcommon.o
 .bss.RTCIsrCbBuff
                0x00000000240001c4       0x18 /home/tony/workdir/stm32h7xxcpplib/output/isrcommon.o
 .bss.gpioIsrCbBuff
                0x00000000240001dc      0x100 /home/tony/workdir/stm32h7xxcpplib/output/isrcommon.o
 .bss.lptimIsrCbBuff
                0x00000000240002dc       0x3c /home/tony/workdir/stm32h7xxcpplib/output/isrcommon.o
 .bss.timIsrCbBuff
                0x0000000024000318       0xa8 /home/tony/workdir/stm32h7xxcpplib/output/isrcommon.o
 .bss.usartIsrCbBuff
                0x00000000240003c0       0x60 /home/tony/workdir/stm32h7xxcpplib/output/isrcommon.o
 .bss.uwTick    0x0000000024000420        0x4 /home/tony/workdir/stm32h7xxcpplib/output/isrcommon.o
                0x0000000024000420                uwTick
 .bss.wwdgIsrCallback
                0x0000000024000424        0x8 /home/tony/workdir/stm32h7xxcpplib/output/isrcommon.o
 .bss._ZGVZN4mMem11getInstanceEvE3mem
                0x000000002400042c        0x4 /home/tony/workdir/stm32h7xxcpplib/output/main.o
                0x000000002400042c                guard variable for mMem::getInstance()::mem
 .bss._ZZN4mMem11getInstanceEvE3mem
                0x0000000024000430       0x3c /home/tony/workdir/stm32h7xxcpplib/output/main.o
                0x0000000024000430                mMem::getInstance()::mem
 .bss._ZGVZN10RCCControl11getInstanceEvE4rcc_
                0x000000002400046c        0x4 /home/tony/workdir/stm32h7xxcpplib/output/main.o
                0x000000002400046c                guard variable for RCCControl::getInstance()::rcc_
 .bss._ZZN10RCCControl11getInstanceEvE4rcc_
                0x0000000024000470        0x1 /home/tony/workdir/stm32h7xxcpplib/output/main.o
                0x0000000024000470                RCCControl::getInstance()::rcc_
 *fill*         0x0000000024000471        0x3 
 .bss._ZGVZN6mClock11getInstanceEvE3clk
                0x0000000024000474        0x4 /home/tony/workdir/stm32h7xxcpplib/output/board.o
                0x0000000024000474                guard variable for mClock::getInstance()::clk
 .bss._ZZN6mClock11getInstanceEvE3clk
                0x0000000024000478        0x8 /home/tony/workdir/stm32h7xxcpplib/output/board.o
                0x0000000024000478                mClock::getInstance()::clk
 .bss._ZGVZN4mIrq11getInstanceEvE3irq
                0x0000000024000480        0x4 /home/tony/workdir/stm32h7xxcpplib/output/board.o
                0x0000000024000480                guard variable for mIrq::getInstance()::irq
 .bss._ZZN4mIrq11getInstanceEvE3irq
                0x0000000024000484        0x1 /home/tony/workdir/stm32h7xxcpplib/output/board.o
                0x0000000024000484                mIrq::getInstance()::irq
 *fill*         0x0000000024000485        0x3 
 .bss.mInterruptFromThread
                0x0000000024000488        0x4 /home/tony/workdir/stm32h7xxcpplib/output/cpuport.o
                0x0000000024000488                mInterruptFromThread
 .bss.mtInterruptToThread
                0x000000002400048c        0x4 /home/tony/workdir/stm32h7xxcpplib/output/cpuport.o
                0x000000002400048c                mtInterruptToThread
 .bss.mtThreadSwitchInterruptFlag
                0x0000000024000490        0x4 /home/tony/workdir/stm32h7xxcpplib/output/cpuport.o
                0x0000000024000490                mtThreadSwitchInterruptFlag
 .bss._ZGVZN9mSchedule11getInstanceEvE3sch
                0x0000000024000494        0x4 /home/tony/workdir/stm32h7xxcpplib/output/mclock.o
                0x0000000024000494                guard variable for mSchedule::getInstance()::sch
 .bss._ZZN9mSchedule11getInstanceEvE3sch
                0x0000000024000498       0x58 /home/tony/workdir/stm32h7xxcpplib/output/mclock.o
                0x0000000024000498                mSchedule::getInstance()::sch
 .bss._ZGVZN10mComponets11getInstanceEvE3com
                0x00000000240004f0        0x4 /home/tony/workdir/stm32h7xxcpplib/output/mcomponents.o
                0x00000000240004f0                guard variable for mComponets::getInstance()::com
 .bss._ZZN10mComponets11getInstanceEvE3com
                0x00000000240004f4       0xa0 /home/tony/workdir/stm32h7xxcpplib/output/mcomponents.o
                0x00000000240004f4                mComponets::getInstance()::com
 .bss._ZGVZN5mIdle11getInstanceEvE4idle
                0x0000000024000594        0x4 /home/tony/workdir/stm32h7xxcpplib/output/mcomponents.o
                0x0000000024000594                guard variable for mIdle::getInstance()::idle
 .bss._ZZN5mIdle11getInstanceEvE4idle
                0x0000000024000598       0xa0 /home/tony/workdir/stm32h7xxcpplib/output/mcomponents.o
                0x0000000024000598                mIdle::getInstance()::idle
 .bss._ZGVZN7mObject11getInstanceEvE3obj
                0x0000000024000638        0x4 /home/tony/workdir/stm32h7xxcpplib/output/midle.o
                0x0000000024000638                guard variable for mObject::getInstance()::obj
 .bss._ZZN7mObject11getInstanceEvE3obj
                0x000000002400063c       0x24 /home/tony/workdir/stm32h7xxcpplib/output/midle.o
                0x000000002400063c                mObject::getInstance()::obj
 .bss._ZN5mIdle11threadStackE
                0x0000000024000660      0x400 /home/tony/workdir/stm32h7xxcpplib/output/midle.o
                0x0000000024000660                mIdle::threadStack
 .bss._ZGVZN9mKservice11getInstanceEvE7service
                0x0000000024000a60        0x4 /home/tony/workdir/stm32h7xxcpplib/output/mscheduler.o
                0x0000000024000a60                guard variable for mKservice::getInstance()::service
 .bss._ZZN9mKservice11getInstanceEvE7service
                0x0000000024000a64        0x1 /home/tony/workdir/stm32h7xxcpplib/output/mscheduler.o
                0x0000000024000a64                mKservice::getInstance()::service
 *fill*         0x0000000024000a65        0x3 
 .bss._ZN6mTimer14timerListTotalE
                0x0000000024000a68        0x8 /home/tony/workdir/stm32h7xxcpplib/output/mtimer.o
                0x0000000024000a68                mTimer::timerListTotal
 .bss._ZZN6mTimer5startEvE8randomNr
                0x0000000024000a70        0x4 /home/tony/workdir/stm32h7xxcpplib/output/mtimer.o
 .bss._ZL6fac_us
                0x0000000024000a74        0x4 /home/tony/workdir/stm32h7xxcpplib/output/delay.o
 .bss._ZGVZN11CORTEXM7MPU11getInstanceEvE3mpu
                0x0000000024000a78        0x4 /home/tony/workdir/stm32h7xxcpplib/output/systeminit.o
                0x0000000024000a78                guard variable for CORTEXM7MPU::getInstance()::mpu
 .bss._ZZN11CORTEXM7MPU11getInstanceEvE3mpu
                0x0000000024000a7c        0x1 /home/tony/workdir/stm32h7xxcpplib/output/systeminit.o
                0x0000000024000a7c                CORTEXM7MPU::getInstance()::mpu
 *fill*         0x0000000024000a7d        0x3 
 .bss._ZGVZN6CORTEX11getInstanceEvE6cortex
                0x0000000024000a80        0x4 /home/tony/workdir/stm32h7xxcpplib/output/systeminit.o
                0x0000000024000a80                guard variable for CORTEX::getInstance()::cortex
 .bss._ZZN6CORTEX11getInstanceEvE6cortex
                0x0000000024000a84        0x1 /home/tony/workdir/stm32h7xxcpplib/output/systeminit.o
                0x0000000024000a84                CORTEX::getInstance()::cortex
 *fill*         0x0000000024000a85        0x3 
 .bss._ZGVZ6hwInitvE5uart1
                0x0000000024000a88        0x4 /home/tony/workdir/stm32h7xxcpplib/output/systeminit.o
 .bss._ZZ6hwInitvE5uart1
                0x0000000024000a8c       0x18 /home/tony/workdir/stm32h7xxcpplib/output/systeminit.o
 .bss._on_exit_args_instance
                0x0000000024000aa4      0x108 /opt/gcc-arm-none-eabi-10.3-2021.10/bin/../lib/gcc/arm-none-eabi/10.3.1/../../../../arm-none-eabi/lib/thumb/v7e-m+fp/hard/libc_nano.a(lib_a-on_exit_args.o)
 .bss.__lock___arc4random_mutex
                0x0000000024000bac        0x1 /opt/gcc-arm-none-eabi-10.3-2021.10/bin/../lib/gcc/arm-none-eabi/10.3.1/../../../../arm-none-eabi/lib/thumb/v7e-m+fp/hard/libc_nano.a(lib_a-lock.o)
                0x0000000024000bac                __lock___arc4random_mutex
 .bss.__lock___at_quick_exit_mutex
                0x0000000024000bad        0x1 /opt/gcc-arm-none-eabi-10.3-2021.10/bin/../lib/gcc/arm-none-eabi/10.3.1/../../../../arm-none-eabi/lib/thumb/v7e-m+fp/hard/libc_nano.a(lib_a-lock.o)
                0x0000000024000bad                __lock___at_quick_exit_mutex
 .bss.__lock___atexit_recursive_mutex
                0x0000000024000bae        0x1 /opt/gcc-arm-none-eabi-10.3-2021.10/bin/../lib/gcc/arm-none-eabi/10.3.1/../../../../arm-none-eabi/lib/thumb/v7e-m+fp/hard/libc_nano.a(lib_a-lock.o)
                0x0000000024000bae                __lock___atexit_recursive_mutex
 .bss.__lock___dd_hash_mutex
                0x0000000024000baf        0x1 /opt/gcc-arm-none-eabi-10.3-2021.10/bin/../lib/gcc/arm-none-eabi/10.3.1/../../../../arm-none-eabi/lib/thumb/v7e-m+fp/hard/libc_nano.a(lib_a-lock.o)
                0x0000000024000baf                __lock___dd_hash_mutex
 .bss.__lock___env_recursive_mutex
                0x0000000024000bb0        0x1 /opt/gcc-arm-none-eabi-10.3-2021.10/bin/../lib/gcc/arm-none-eabi/10.3.1/../../../../arm-none-eabi/lib/thumb/v7e-m+fp/hard/libc_nano.a(lib_a-lock.o)
                0x0000000024000bb0                __lock___env_recursive_mutex
 .bss.__lock___malloc_recursive_mutex
                0x0000000024000bb1        0x1 /opt/gcc-arm-none-eabi-10.3-2021.10/bin/../lib/gcc/arm-none-eabi/10.3.1/../../../../arm-none-eabi/lib/thumb/v7e-m+fp/hard/libc_nano.a(lib_a-lock.o)
                0x0000000024000bb1                __lock___malloc_recursive_mutex
 .bss.__lock___sfp_recursive_mutex
                0x0000000024000bb2        0x1 /opt/gcc-arm-none-eabi-10.3-2021.10/bin/../lib/gcc/arm-none-eabi/10.3.1/../../../../arm-none-eabi/lib/thumb/v7e-m+fp/hard/libc_nano.a(lib_a-lock.o)
                0x0000000024000bb2                __lock___sfp_recursive_mutex
 .bss.__lock___sinit_recursive_mutex
                0x0000000024000bb3        0x1 /opt/gcc-arm-none-eabi-10.3-2021.10/bin/../lib/gcc/arm-none-eabi/10.3.1/../../../../arm-none-eabi/lib/thumb/v7e-m+fp/hard/libc_nano.a(lib_a-lock.o)
                0x0000000024000bb3                __lock___sinit_recursive_mutex
 .bss.__lock___tz_mutex
                0x0000000024000bb4        0x1 /opt/gcc-arm-none-eabi-10.3-2021.10/bin/../lib/gcc/arm-none-eabi/10.3.1/../../../../arm-none-eabi/lib/thumb/v7e-m+fp/hard/libc_nano.a(lib_a-lock.o)
                0x0000000024000bb4                __lock___tz_mutex
 *fill*         0x0000000024000bb5        0x3 
 .bss.__malloc_free_list
                0x0000000024000bb8        0x4 /opt/gcc-arm-none-eabi-10.3-2021.10/bin/../lib/gcc/arm-none-eabi/10.3.1/../../../../arm-none-eabi/lib/thumb/v7e-m+fp/hard/libc_nano.a(lib_a-nano-mallocr.o)
                0x0000000024000bb8                __malloc_free_list
 .bss.__malloc_sbrk_start
                0x0000000024000bbc        0x4 /opt/gcc-arm-none-eabi-10.3-2021.10/bin/../lib/gcc/arm-none-eabi/10.3.1/../../../../arm-none-eabi/lib/thumb/v7e-m+fp/hard/libc_nano.a(lib_a-nano-mallocr.o)
                0x0000000024000bbc                __malloc_sbrk_start
 .bss.errno     0x0000000024000bc0        0x4 /opt/gcc-arm-none-eabi-10.3-2021.10/bin/../lib/gcc/arm-none-eabi/10.3.1/../../../../arm-none-eabi/lib/thumb/v7e-m+fp/hard/libc_nano.a(lib_a-reent.o)
                0x0000000024000bc0                errno
 .bss.heap_end.0
                0x0000000024000bc4        0x4 /opt/gcc-arm-none-eabi-10.3-2021.10/bin/../lib/gcc/arm-none-eabi/10.3.1/../../../../arm-none-eabi/lib/thumb/v7e-m+fp/hard/libnosys.a(sbrk.o)
 *(COMMON)
                0x0000000024000bc8                . = ALIGN (0x4)
                0x0000000024000bc8                _ebss = .
                0x0000000024000bc8                __bss_end__ = _ebss

._user_heap_stack
                0x0000000024000bc8      0x600 load address 0x00000000080076e4
                0x0000000024000bc8                . = ALIGN (0x8)
                0x0000000024000bc8                PROVIDE (end = .)
                [!provide]                        PROVIDE (_end = .)
                0x0000000024000dc8                . = (. + _Min_Heap_Size)
 *fill*         0x0000000024000bc8      0x200 
                0x00000000240011c8                . = (. + _Min_Stack_Size)
 *fill*         0x0000000024000dc8      0x400 
                0x00000000240011c8                . = ALIGN (0x8)

.dtcmram        0x0000000020000000     0x2800 load address 0x00000000080076e4
                0x0000000020000000                . = ALIGN (0x4)
 *(.dtcmram)
 .dtcmram       0x0000000020000000     0x2800 /home/tony/workdir/stm32h7xxcpplib/output/mcomponents.o
                0x0000000020002800                . = ALIGN (0x4)

.ramd2          0x0000000030000000     0xc800 load address 0x0000000008009ee4
                0x0000000030000000                . = ALIGN (0x4)
 *(.ramd2)
 .ramd2         0x0000000030000000     0xc800 /home/tony/workdir/stm32h7xxcpplib/output/board.o
                0x000000003000c800                . = ALIGN (0x4)

.ramd3          0x0000000038000000        0x0 load address 0x00000000080166e4
                0x0000000038000000                . = ALIGN (0x4)
 *(.ramd3)
                0x0000000038000000                . = ALIGN (0x4)

/DISCARD/
 libc.a(*)
 libm.a(*)
 libgcc.a(*)

.ARM.attributes
                0x0000000000000000       0x30
 *(.ARM.attributes)
 .ARM.attributes
                0x0000000000000000       0x1e /opt/gcc-arm-none-eabi-10.3-2021.10/bin/../lib/gcc/arm-none-eabi/10.3.1/thumb/v7e-m+fp/hard/crti.o
 .ARM.attributes
                0x000000000000001e       0x34 /opt/gcc-arm-none-eabi-10.3-2021.10/bin/../lib/gcc/arm-none-eabi/10.3.1/thumb/v7e-m+fp/hard/crtbegin.o
 .ARM.attributes
                0x0000000000000052       0x1c /opt/gcc-arm-none-eabi-10.3-2021.10/bin/../lib/gcc/arm-none-eabi/10.3.1/../../../../arm-none-eabi/lib/thumb/v7e-m+fp/hard/crt0.o
 .ARM.attributes
                0x000000000000006e       0x21 /home/tony/workdir/stm32h7xxcpplib/output/startup_stm32h750xx.o
 .ARM.attributes
                0x000000000000008f       0x25 /home/tony/workdir/stm32h7xxcpplib/output/context_gcc.o
 .ARM.attributes
                0x00000000000000b4       0x34 /home/tony/workdir/stm32h7xxcpplib/output/isrcommon.o
 .ARM.attributes
                0x00000000000000e8       0x34 /home/tony/workdir/stm32h7xxcpplib/output/w25qxx.o
 .ARM.attributes
                0x000000000000011c       0x34 /home/tony/workdir/stm32h7xxcpplib/output/sdram.o
 .ARM.attributes
                0x0000000000000150       0x34 /home/tony/workdir/stm32h7xxcpplib/output/stm32h7xx_it.o
 .ARM.attributes
                0x0000000000000184       0x34 /home/tony/workdir/stm32h7xxcpplib/output/system_stm32h7xx.o
 .ARM.attributes
                0x00000000000001b8       0x34 /home/tony/workdir/stm32h7xxcpplib/output/printfremap.o
 .ARM.attributes
                0x00000000000001ec       0x34 /home/tony/workdir/stm32h7xxcpplib/output/main.o
 .ARM.attributes
                0x0000000000000220       0x34 /home/tony/workdir/stm32h7xxcpplib/output/board.o
 .ARM.attributes
                0x0000000000000254       0x34 /home/tony/workdir/stm32h7xxcpplib/output/cpuport.o
 .ARM.attributes
                0x0000000000000288       0x34 /home/tony/workdir/stm32h7xxcpplib/output/mclock.o
 .ARM.attributes
                0x00000000000002bc       0x34 /home/tony/workdir/stm32h7xxcpplib/output/mcomponents.o
 .ARM.attributes
                0x00000000000002f0       0x34 /home/tony/workdir/stm32h7xxcpplib/output/midle.o
 .ARM.attributes
                0x0000000000000324       0x34 /home/tony/workdir/stm32h7xxcpplib/output/mipc.o
 .ARM.attributes
                0x0000000000000358       0x34 /home/tony/workdir/stm32h7xxcpplib/output/mirq.o
 .ARM.attributes
                0x000000000000038c       0x34 /home/tony/workdir/stm32h7xxcpplib/output/mkservice.o
 .ARM.attributes
                0x00000000000003c0       0x34 /home/tony/workdir/stm32h7xxcpplib/output/mmem.o
 .ARM.attributes
                0x00000000000003f4       0x34 /home/tony/workdir/stm32h7xxcpplib/output/mobject.o
 .ARM.attributes
                0x0000000000000428       0x34 /home/tony/workdir/stm32h7xxcpplib/output/mscheduler.o
 .ARM.attributes
                0x000000000000045c       0x34 /home/tony/workdir/stm32h7xxcpplib/output/mthread.o
 .ARM.attributes
                0x0000000000000490       0x34 /home/tony/workdir/stm32h7xxcpplib/output/mtimer.o
 .ARM.attributes
                0x00000000000004c4       0x34 /home/tony/workdir/stm32h7xxcpplib/output/delay.o
 .ARM.attributes
                0x00000000000004f8       0x34 /home/tony/workdir/stm32h7xxcpplib/output/systeminit.o
 .ARM.attributes
                0x000000000000052c       0x34 /opt/gcc-arm-none-eabi-10.3-2021.10/bin/../lib/gcc/arm-none-eabi/10.3.1/../../../../arm-none-eabi/lib/thumb/v7e-m+fp/hard/libc_nano.a(lib_a-aeabi_atexit.o)
 .ARM.attributes
                0x0000000000000560       0x34 /opt/gcc-arm-none-eabi-10.3-2021.10/bin/../lib/gcc/arm-none-eabi/10.3.1/../../../../arm-none-eabi/lib/thumb/v7e-m+fp/hard/libc_nano.a(lib_a-cxa_atexit.o)
 .ARM.attributes
                0x0000000000000594       0x34 /opt/gcc-arm-none-eabi-10.3-2021.10/bin/../lib/gcc/arm-none-eabi/10.3.1/../../../../arm-none-eabi/lib/thumb/v7e-m+fp/hard/libc_nano.a(lib_a-exit.o)
 .ARM.attributes
                0x00000000000005c8       0x34 /opt/gcc-arm-none-eabi-10.3-2021.10/bin/../lib/gcc/arm-none-eabi/10.3.1/../../../../arm-none-eabi/lib/thumb/v7e-m+fp/hard/libc_nano.a(lib_a-impure.o)
 .ARM.attributes
                0x00000000000005fc       0x34 /opt/gcc-arm-none-eabi-10.3-2021.10/bin/../lib/gcc/arm-none-eabi/10.3.1/../../../../arm-none-eabi/lib/thumb/v7e-m+fp/hard/libc_nano.a(lib_a-init.o)
 .ARM.attributes
                0x0000000000000630       0x34 /opt/gcc-arm-none-eabi-10.3-2021.10/bin/../lib/gcc/arm-none-eabi/10.3.1/../../../../arm-none-eabi/lib/thumb/v7e-m+fp/hard/libc_nano.a(lib_a-memcpy-stub.o)
 .ARM.attributes
                0x0000000000000664       0x34 /opt/gcc-arm-none-eabi-10.3-2021.10/bin/../lib/gcc/arm-none-eabi/10.3.1/../../../../arm-none-eabi/lib/thumb/v7e-m+fp/hard/libc_nano.a(lib_a-memset.o)
 .ARM.attributes
                0x0000000000000698       0x34 /opt/gcc-arm-none-eabi-10.3-2021.10/bin/../lib/gcc/arm-none-eabi/10.3.1/../../../../arm-none-eabi/lib/thumb/v7e-m+fp/hard/libc_nano.a(lib_a-on_exit_args.o)
 .ARM.attributes
                0x00000000000006cc       0x34 /opt/gcc-arm-none-eabi-10.3-2021.10/bin/../lib/gcc/arm-none-eabi/10.3.1/../../../../arm-none-eabi/lib/thumb/v7e-m+fp/hard/libc_nano.a(lib_a-printf.o)
 .ARM.attributes
                0x0000000000000700       0x34 /opt/gcc-arm-none-eabi-10.3-2021.10/bin/../lib/gcc/arm-none-eabi/10.3.1/../../../../arm-none-eabi/lib/thumb/v7e-m+fp/hard/libc_nano.a(lib_a-strncmp.o)
 .ARM.attributes
                0x0000000000000734       0x34 /opt/gcc-arm-none-eabi-10.3-2021.10/bin/../lib/gcc/arm-none-eabi/10.3.1/../../../../arm-none-eabi/lib/thumb/v7e-m+fp/hard/libc_nano.a(lib_a-strncpy.o)
 .ARM.attributes
                0x0000000000000768       0x34 /opt/gcc-arm-none-eabi-10.3-2021.10/bin/../lib/gcc/arm-none-eabi/10.3.1/../../../../arm-none-eabi/lib/thumb/v7e-m+fp/hard/libc_nano.a(lib_a-findfp.o)
 .ARM.attributes
                0x000000000000079c       0x34 /opt/gcc-arm-none-eabi-10.3-2021.10/bin/../lib/gcc/arm-none-eabi/10.3.1/../../../../arm-none-eabi/lib/thumb/v7e-m+fp/hard/libc_nano.a(lib_a-fwalk.o)
 .ARM.attributes
                0x00000000000007d0       0x34 /opt/gcc-arm-none-eabi-10.3-2021.10/bin/../lib/gcc/arm-none-eabi/10.3.1/../../../../arm-none-eabi/lib/thumb/v7e-m+fp/hard/libc_nano.a(lib_a-lock.o)
 .ARM.attributes
                0x0000000000000804       0x34 /opt/gcc-arm-none-eabi-10.3-2021.10/bin/../lib/gcc/arm-none-eabi/10.3.1/../../../../arm-none-eabi/lib/thumb/v7e-m+fp/hard/libc_nano.a(lib_a-nano-mallocr.o)
 .ARM.attributes
                0x0000000000000838       0x34 /opt/gcc-arm-none-eabi-10.3-2021.10/bin/../lib/gcc/arm-none-eabi/10.3.1/../../../../arm-none-eabi/lib/thumb/v7e-m+fp/hard/libc_nano.a(lib_a-nano-vfprintf.o)
 .ARM.attributes
                0x000000000000086c       0x34 /opt/gcc-arm-none-eabi-10.3-2021.10/bin/../lib/gcc/arm-none-eabi/10.3.1/../../../../arm-none-eabi/lib/thumb/v7e-m+fp/hard/libc_nano.a(lib_a-nano-vfprintf_i.o)
 .ARM.attributes
                0x00000000000008a0       0x34 /opt/gcc-arm-none-eabi-10.3-2021.10/bin/../lib/gcc/arm-none-eabi/10.3.1/../../../../arm-none-eabi/lib/thumb/v7e-m+fp/hard/libc_nano.a(lib_a-sbrkr.o)
 .ARM.attributes
                0x00000000000008d4       0x34 /opt/gcc-arm-none-eabi-10.3-2021.10/bin/../lib/gcc/arm-none-eabi/10.3.1/../../../../arm-none-eabi/lib/thumb/v7e-m+fp/hard/libc_nano.a(lib_a-stdio.o)
 .ARM.attributes
                0x0000000000000908       0x34 /opt/gcc-arm-none-eabi-10.3-2021.10/bin/../lib/gcc/arm-none-eabi/10.3.1/../../../../arm-none-eabi/lib/thumb/v7e-m+fp/hard/libc_nano.a(lib_a-wbuf.o)
 .ARM.attributes
                0x000000000000093c       0x34 /opt/gcc-arm-none-eabi-10.3-2021.10/bin/../lib/gcc/arm-none-eabi/10.3.1/../../../../arm-none-eabi/lib/thumb/v7e-m+fp/hard/libc_nano.a(lib_a-writer.o)
 .ARM.attributes
                0x0000000000000970       0x34 /opt/gcc-arm-none-eabi-10.3-2021.10/bin/../lib/gcc/arm-none-eabi/10.3.1/../../../../arm-none-eabi/lib/thumb/v7e-m+fp/hard/libc_nano.a(lib_a-wsetup.o)
 .ARM.attributes
                0x00000000000009a4       0x34 /opt/gcc-arm-none-eabi-10.3-2021.10/bin/../lib/gcc/arm-none-eabi/10.3.1/../../../../arm-none-eabi/lib/thumb/v7e-m+fp/hard/libc_nano.a(lib_a-closer.o)
 .ARM.attributes
                0x00000000000009d8       0x34 /opt/gcc-arm-none-eabi-10.3-2021.10/bin/../lib/gcc/arm-none-eabi/10.3.1/../../../../arm-none-eabi/lib/thumb/v7e-m+fp/hard/libc_nano.a(lib_a-fflush.o)
 .ARM.attributes
                0x0000000000000a0c       0x34 /opt/gcc-arm-none-eabi-10.3-2021.10/bin/../lib/gcc/arm-none-eabi/10.3.1/../../../../arm-none-eabi/lib/thumb/v7e-m+fp/hard/libc_nano.a(lib_a-fvwrite.o)
 .ARM.attributes
                0x0000000000000a40       0x34 /opt/gcc-arm-none-eabi-10.3-2021.10/bin/../lib/gcc/arm-none-eabi/10.3.1/../../../../arm-none-eabi/lib/thumb/v7e-m+fp/hard/libc_nano.a(lib_a-lseekr.o)
 .ARM.attributes
                0x0000000000000a74       0x34 /opt/gcc-arm-none-eabi-10.3-2021.10/bin/../lib/gcc/arm-none-eabi/10.3.1/../../../../arm-none-eabi/lib/thumb/v7e-m+fp/hard/libc_nano.a(lib_a-makebuf.o)
 .ARM.attributes
                0x0000000000000aa8       0x1c /opt/gcc-arm-none-eabi-10.3-2021.10/bin/../lib/gcc/arm-none-eabi/10.3.1/../../../../arm-none-eabi/lib/thumb/v7e-m+fp/hard/libc_nano.a(lib_a-memchr.o)
 .ARM.attributes
                0x0000000000000ac4       0x34 /opt/gcc-arm-none-eabi-10.3-2021.10/bin/../lib/gcc/arm-none-eabi/10.3.1/../../../../arm-none-eabi/lib/thumb/v7e-m+fp/hard/libc_nano.a(lib_a-memmove.o)
 .ARM.attributes
                0x0000000000000af8       0x34 /opt/gcc-arm-none-eabi-10.3-2021.10/bin/../lib/gcc/arm-none-eabi/10.3.1/../../../../arm-none-eabi/lib/thumb/v7e-m+fp/hard/libc_nano.a(lib_a-mlock.o)
 .ARM.attributes
                0x0000000000000b2c       0x34 /opt/gcc-arm-none-eabi-10.3-2021.10/bin/../lib/gcc/arm-none-eabi/10.3.1/../../../../arm-none-eabi/lib/thumb/v7e-m+fp/hard/libc_nano.a(lib_a-nano-freer.o)
 .ARM.attributes
                0x0000000000000b60       0x34 /opt/gcc-arm-none-eabi-10.3-2021.10/bin/../lib/gcc/arm-none-eabi/10.3.1/../../../../arm-none-eabi/lib/thumb/v7e-m+fp/hard/libc_nano.a(lib_a-nano-reallocr.o)
 .ARM.attributes
                0x0000000000000b94       0x34 /opt/gcc-arm-none-eabi-10.3-2021.10/bin/../lib/gcc/arm-none-eabi/10.3.1/../../../../arm-none-eabi/lib/thumb/v7e-m+fp/hard/libc_nano.a(lib_a-readr.o)
 .ARM.attributes
                0x0000000000000bc8       0x34 /opt/gcc-arm-none-eabi-10.3-2021.10/bin/../lib/gcc/arm-none-eabi/10.3.1/../../../../arm-none-eabi/lib/thumb/v7e-m+fp/hard/libc_nano.a(lib_a-reent.o)
 .ARM.attributes
                0x0000000000000bfc       0x34 /opt/gcc-arm-none-eabi-10.3-2021.10/bin/../lib/gcc/arm-none-eabi/10.3.1/../../../../arm-none-eabi/lib/thumb/v7e-m+fp/hard/libc_nano.a(lib_a-fstatr.o)
 .ARM.attributes
                0x0000000000000c30       0x34 /opt/gcc-arm-none-eabi-10.3-2021.10/bin/../lib/gcc/arm-none-eabi/10.3.1/../../../../arm-none-eabi/lib/thumb/v7e-m+fp/hard/libc_nano.a(lib_a-isattyr.o)
 .ARM.attributes
                0x0000000000000c64       0x34 /opt/gcc-arm-none-eabi-10.3-2021.10/bin/../lib/gcc/arm-none-eabi/10.3.1/../../../../arm-none-eabi/lib/thumb/v7e-m+fp/hard/libc_nano.a(lib_a-nano-msizer.o)
 .ARM.attributes
                0x0000000000000c98       0x34 /opt/gcc-arm-none-eabi-10.3-2021.10/bin/../lib/gcc/arm-none-eabi/10.3.1/../../../../arm-none-eabi/lib/thumb/v7e-m+fp/hard/libstdc++_nano.a(guard.o)
 .ARM.attributes
                0x0000000000000ccc       0x34 /opt/gcc-arm-none-eabi-10.3-2021.10/bin/../lib/gcc/arm-none-eabi/10.3.1/../../../../arm-none-eabi/lib/thumb/v7e-m+fp/hard/libnosys.a(close.o)
 .ARM.attributes
                0x0000000000000d00       0x34 /opt/gcc-arm-none-eabi-10.3-2021.10/bin/../lib/gcc/arm-none-eabi/10.3.1/../../../../arm-none-eabi/lib/thumb/v7e-m+fp/hard/libnosys.a(fstat.o)
 .ARM.attributes
                0x0000000000000d34       0x34 /opt/gcc-arm-none-eabi-10.3-2021.10/bin/../lib/gcc/arm-none-eabi/10.3.1/../../../../arm-none-eabi/lib/thumb/v7e-m+fp/hard/libnosys.a(isatty.o)
 .ARM.attributes
                0x0000000000000d68       0x34 /opt/gcc-arm-none-eabi-10.3-2021.10/bin/../lib/gcc/arm-none-eabi/10.3.1/../../../../arm-none-eabi/lib/thumb/v7e-m+fp/hard/libnosys.a(lseek.o)
 .ARM.attributes
                0x0000000000000d9c       0x34 /opt/gcc-arm-none-eabi-10.3-2021.10/bin/../lib/gcc/arm-none-eabi/10.3.1/../../../../arm-none-eabi/lib/thumb/v7e-m+fp/hard/libnosys.a(sbrk.o)
 .ARM.attributes
                0x0000000000000dd0       0x34 /opt/gcc-arm-none-eabi-10.3-2021.10/bin/../lib/gcc/arm-none-eabi/10.3.1/../../../../arm-none-eabi/lib/thumb/v7e-m+fp/hard/libnosys.a(_exit.o)
 .ARM.attributes
                0x0000000000000e04       0x34 /opt/gcc-arm-none-eabi-10.3-2021.10/bin/../lib/gcc/arm-none-eabi/10.3.1/thumb/v7e-m+fp/hard/crtend.o
 .ARM.attributes
                0x0000000000000e38       0x1e /opt/gcc-arm-none-eabi-10.3-2021.10/bin/../lib/gcc/arm-none-eabi/10.3.1/thumb/v7e-m+fp/hard/crtn.o
OUTPUT(/home/tony/workdir/stm32h7xxcpplib/output/STM32H7CPP.elf elf32-littlearm)
LOAD linker stubs
LOAD /opt/gcc-arm-none-eabi-10.3-2021.10/bin/../lib/gcc/arm-none-eabi/10.3.1/../../../../arm-none-eabi/lib/thumb/v7e-m+fp/hard/libc.a
LOAD /opt/gcc-arm-none-eabi-10.3-2021.10/bin/../lib/gcc/arm-none-eabi/10.3.1/../../../../arm-none-eabi/lib/thumb/v7e-m+fp/hard/libm.a
LOAD /opt/gcc-arm-none-eabi-10.3-2021.10/bin/../lib/gcc/arm-none-eabi/10.3.1/thumb/v7e-m+fp/hard/libgcc.a

.debug_info     0x0000000000000000    0x41f4b
 .debug_info    0x0000000000000000     0x3b11 /home/tony/workdir/stm32h7xxcpplib/output/isrcommon.o
 .debug_info    0x0000000000003b11       0x92 /home/tony/workdir/stm32h7xxcpplib/output/stm32h7xx_it.o
 .debug_info    0x0000000000003ba3      0xb68 /home/tony/workdir/stm32h7xxcpplib/output/system_stm32h7xx.o
 .debug_info    0x000000000000470b      0x26d /home/tony/workdir/stm32h7xxcpplib/output/printfremap.o
 .debug_info    0x0000000000004978    0x11b47 /home/tony/workdir/stm32h7xxcpplib/output/main.o
 .debug_info    0x00000000000164bf     0x1e74 /home/tony/workdir/stm32h7xxcpplib/output/board.o
 .debug_info    0x0000000000018333      0xaa4 /home/tony/workdir/stm32h7xxcpplib/output/cpuport.o
 .debug_info    0x0000000000018dd7     0x1106 /home/tony/workdir/stm32h7xxcpplib/output/mclock.o
 .debug_info    0x0000000000019edd     0x35fe /home/tony/workdir/stm32h7xxcpplib/output/mcomponents.o
 .debug_info    0x000000000001d4db     0x3726 /home/tony/workdir/stm32h7xxcpplib/output/midle.o
 .debug_info    0x0000000000020c01     0x3898 /home/tony/workdir/stm32h7xxcpplib/output/mipc.o
 .debug_info    0x0000000000024499      0x7f5 /home/tony/workdir/stm32h7xxcpplib/output/mirq.o
 .debug_info    0x0000000000024c8e      0x693 /home/tony/workdir/stm32h7xxcpplib/output/mkservice.o
 .debug_info    0x0000000000025321     0x201f /home/tony/workdir/stm32h7xxcpplib/output/mmem.o
 .debug_info    0x0000000000027340     0x1af5 /home/tony/workdir/stm32h7xxcpplib/output/mobject.o
 .debug_info    0x0000000000028e35     0x17f7 /home/tony/workdir/stm32h7xxcpplib/output/mscheduler.o
 .debug_info    0x000000000002a62c     0x5092 /home/tony/workdir/stm32h7xxcpplib/output/mthread.o
 .debug_info    0x000000000002f6be     0x3987 /home/tony/workdir/stm32h7xxcpplib/output/mtimer.o
 .debug_info    0x0000000000033045      0x32e /home/tony/workdir/stm32h7xxcpplib/output/delay.o
 .debug_info    0x0000000000033373     0xebd8 /home/tony/workdir/stm32h7xxcpplib/output/systeminit.o

.debug_abbrev   0x0000000000000000     0x7635
 .debug_abbrev  0x0000000000000000      0x563 /home/tony/workdir/stm32h7xxcpplib/output/isrcommon.o
 .debug_abbrev  0x0000000000000563       0x64 /home/tony/workdir/stm32h7xxcpplib/output/stm32h7xx_it.o
 .debug_abbrev  0x00000000000005c7      0x12a /home/tony/workdir/stm32h7xxcpplib/output/system_stm32h7xx.o
 .debug_abbrev  0x00000000000006f1      0x114 /home/tony/workdir/stm32h7xxcpplib/output/printfremap.o
 .debug_abbrev  0x0000000000000805      0xfec /home/tony/workdir/stm32h7xxcpplib/output/main.o
 .debug_abbrev  0x00000000000017f1      0x568 /home/tony/workdir/stm32h7xxcpplib/output/board.o
 .debug_abbrev  0x0000000000001d59      0x280 /home/tony/workdir/stm32h7xxcpplib/output/cpuport.o
 .debug_abbrev  0x0000000000001fd9      0x45a /home/tony/workdir/stm32h7xxcpplib/output/mclock.o
 .debug_abbrev  0x0000000000002433      0x885 /home/tony/workdir/stm32h7xxcpplib/output/mcomponents.o
 .debug_abbrev  0x0000000000002cb8      0xa4f /home/tony/workdir/stm32h7xxcpplib/output/midle.o
 .debug_abbrev  0x0000000000003707      0x87a /home/tony/workdir/stm32h7xxcpplib/output/mipc.o
 .debug_abbrev  0x0000000000003f81      0x24d /home/tony/workdir/stm32h7xxcpplib/output/mirq.o
 .debug_abbrev  0x00000000000041ce      0x1e6 /home/tony/workdir/stm32h7xxcpplib/output/mkservice.o
 .debug_abbrev  0x00000000000043b4      0x6ea /home/tony/workdir/stm32h7xxcpplib/output/mmem.o
 .debug_abbrev  0x0000000000004a9e      0x500 /home/tony/workdir/stm32h7xxcpplib/output/mobject.o
 .debug_abbrev  0x0000000000004f9e      0x4bc /home/tony/workdir/stm32h7xxcpplib/output/mscheduler.o
 .debug_abbrev  0x000000000000545a      0x999 /home/tony/workdir/stm32h7xxcpplib/output/mthread.o
 .debug_abbrev  0x0000000000005df3      0x9da /home/tony/workdir/stm32h7xxcpplib/output/mtimer.o
 .debug_abbrev  0x00000000000067cd      0x176 /home/tony/workdir/stm32h7xxcpplib/output/delay.o
 .debug_abbrev  0x0000000000006943      0xcf2 /home/tony/workdir/stm32h7xxcpplib/output/systeminit.o

.debug_loc      0x0000000000000000     0xb48f
 .debug_loc     0x0000000000000000     0x179d /home/tony/workdir/stm32h7xxcpplib/output/isrcommon.o
 .debug_loc     0x000000000000179d      0x1b0 /home/tony/workdir/stm32h7xxcpplib/output/system_stm32h7xx.o
 .debug_loc     0x000000000000194d      0x108 /home/tony/workdir/stm32h7xxcpplib/output/printfremap.o
 .debug_loc     0x0000000000001a55      0xe24 /home/tony/workdir/stm32h7xxcpplib/output/main.o
 .debug_loc     0x0000000000002879      0x21d /home/tony/workdir/stm32h7xxcpplib/output/board.o
 .debug_loc     0x0000000000002a96      0x135 /home/tony/workdir/stm32h7xxcpplib/output/cpuport.o
 .debug_loc     0x0000000000002bcb      0x243 /home/tony/workdir/stm32h7xxcpplib/output/mclock.o
 .debug_loc     0x0000000000002e0e      0x713 /home/tony/workdir/stm32h7xxcpplib/output/mcomponents.o
 .debug_loc     0x0000000000003521      0x508 /home/tony/workdir/stm32h7xxcpplib/output/midle.o
 .debug_loc     0x0000000000003a29      0xa98 /home/tony/workdir/stm32h7xxcpplib/output/mipc.o
 .debug_loc     0x00000000000044c1      0x187 /home/tony/workdir/stm32h7xxcpplib/output/mirq.o
 .debug_loc     0x0000000000004648       0xae /home/tony/workdir/stm32h7xxcpplib/output/mkservice.o
 .debug_loc     0x00000000000046f6      0xb71 /home/tony/workdir/stm32h7xxcpplib/output/mmem.o
 .debug_loc     0x0000000000005267      0xaf5 /home/tony/workdir/stm32h7xxcpplib/output/mobject.o
 .debug_loc     0x0000000000005d5c      0x727 /home/tony/workdir/stm32h7xxcpplib/output/mscheduler.o
 .debug_loc     0x0000000000006483     0x194c /home/tony/workdir/stm32h7xxcpplib/output/mthread.o
 .debug_loc     0x0000000000007dcf     0x1123 /home/tony/workdir/stm32h7xxcpplib/output/mtimer.o
 .debug_loc     0x0000000000008ef2      0x13e /home/tony/workdir/stm32h7xxcpplib/output/delay.o
 .debug_loc     0x0000000000009030     0x245f /home/tony/workdir/stm32h7xxcpplib/output/systeminit.o

.debug_aranges  0x0000000000000000      0xb00
 .debug_aranges
                0x0000000000000000      0x300 /home/tony/workdir/stm32h7xxcpplib/output/isrcommon.o
 .debug_aranges
                0x0000000000000300       0x38 /home/tony/workdir/stm32h7xxcpplib/output/stm32h7xx_it.o
 .debug_aranges
                0x0000000000000338       0x28 /home/tony/workdir/stm32h7xxcpplib/output/system_stm32h7xx.o
 .debug_aranges
                0x0000000000000360       0x28 /home/tony/workdir/stm32h7xxcpplib/output/printfremap.o
 .debug_aranges
                0x0000000000000388       0x78 /home/tony/workdir/stm32h7xxcpplib/output/main.o
 .debug_aranges
                0x0000000000000400       0x48 /home/tony/workdir/stm32h7xxcpplib/output/board.o
 .debug_aranges
                0x0000000000000448       0x28 /home/tony/workdir/stm32h7xxcpplib/output/cpuport.o
 .debug_aranges
                0x0000000000000470       0x48 /home/tony/workdir/stm32h7xxcpplib/output/mclock.o
 .debug_aranges
                0x00000000000004b8       0x70 /home/tony/workdir/stm32h7xxcpplib/output/mcomponents.o
 .debug_aranges
                0x0000000000000528       0x58 /home/tony/workdir/stm32h7xxcpplib/output/midle.o
 .debug_aranges
                0x0000000000000580       0x98 /home/tony/workdir/stm32h7xxcpplib/output/mipc.o
 .debug_aranges
                0x0000000000000618       0x40 /home/tony/workdir/stm32h7xxcpplib/output/mirq.o
 .debug_aranges
                0x0000000000000658       0x20 /home/tony/workdir/stm32h7xxcpplib/output/mkservice.o
 .debug_aranges
                0x0000000000000678       0x68 /home/tony/workdir/stm32h7xxcpplib/output/mmem.o
 .debug_aranges
                0x00000000000006e0       0x80 /home/tony/workdir/stm32h7xxcpplib/output/mobject.o
 .debug_aranges
                0x0000000000000760       0x98 /home/tony/workdir/stm32h7xxcpplib/output/mscheduler.o
 .debug_aranges
                0x00000000000007f8      0x120 /home/tony/workdir/stm32h7xxcpplib/output/mthread.o
 .debug_aranges
                0x0000000000000918       0xe8 /home/tony/workdir/stm32h7xxcpplib/output/mtimer.o
 .debug_aranges
                0x0000000000000a00       0x30 /home/tony/workdir/stm32h7xxcpplib/output/delay.o
 .debug_aranges
                0x0000000000000a30       0xd0 /home/tony/workdir/stm32h7xxcpplib/output/systeminit.o

.debug_ranges   0x0000000000000000     0x2308
 .debug_ranges  0x0000000000000000      0x430 /home/tony/workdir/stm32h7xxcpplib/output/isrcommon.o
 .debug_ranges  0x0000000000000430       0x28 /home/tony/workdir/stm32h7xxcpplib/output/stm32h7xx_it.o
 .debug_ranges  0x0000000000000458       0x18 /home/tony/workdir/stm32h7xxcpplib/output/system_stm32h7xx.o
 .debug_ranges  0x0000000000000470       0x58 /home/tony/workdir/stm32h7xxcpplib/output/printfremap.o
 .debug_ranges  0x00000000000004c8      0x3f8 /home/tony/workdir/stm32h7xxcpplib/output/main.o
 .debug_ranges  0x00000000000008c0      0x148 /home/tony/workdir/stm32h7xxcpplib/output/board.o
 .debug_ranges  0x0000000000000a08       0x18 /home/tony/workdir/stm32h7xxcpplib/output/cpuport.o
 .debug_ranges  0x0000000000000a20       0x88 /home/tony/workdir/stm32h7xxcpplib/output/mclock.o
 .debug_ranges  0x0000000000000aa8      0x2e0 /home/tony/workdir/stm32h7xxcpplib/output/mcomponents.o
 .debug_ranges  0x0000000000000d88      0x1c8 /home/tony/workdir/stm32h7xxcpplib/output/midle.o
 .debug_ranges  0x0000000000000f50      0x188 /home/tony/workdir/stm32h7xxcpplib/output/mipc.o
 .debug_ranges  0x00000000000010d8       0x30 /home/tony/workdir/stm32h7xxcpplib/output/mirq.o
 .debug_ranges  0x0000000000001108       0x10 /home/tony/workdir/stm32h7xxcpplib/output/mkservice.o
 .debug_ranges  0x0000000000001118      0x150 /home/tony/workdir/stm32h7xxcpplib/output/mmem.o
 .debug_ranges  0x0000000000001268       0xf8 /home/tony/workdir/stm32h7xxcpplib/output/mobject.o
 .debug_ranges  0x0000000000001360      0x110 /home/tony/workdir/stm32h7xxcpplib/output/mscheduler.o
 .debug_ranges  0x0000000000001470      0x310 /home/tony/workdir/stm32h7xxcpplib/output/mthread.o
 .debug_ranges  0x0000000000001780      0x2a8 /home/tony/workdir/stm32h7xxcpplib/output/mtimer.o
 .debug_ranges  0x0000000000001a28       0x20 /home/tony/workdir/stm32h7xxcpplib/output/delay.o
 .debug_ranges  0x0000000000001a48      0x8c0 /home/tony/workdir/stm32h7xxcpplib/output/systeminit.o

.debug_line     0x0000000000000000     0xde8b
 .debug_line    0x0000000000000000     0x3222 /home/tony/workdir/stm32h7xxcpplib/output/isrcommon.o
 .debug_line    0x0000000000003222        0x0 /home/tony/workdir/stm32h7xxcpplib/output/w25qxx.o
 .debug_line    0x0000000000003222        0x0 /home/tony/workdir/stm32h7xxcpplib/output/sdram.o
 .debug_line    0x0000000000003222       0xdb /home/tony/workdir/stm32h7xxcpplib/output/stm32h7xx_it.o
 .debug_line    0x00000000000032fd      0x3ef /home/tony/workdir/stm32h7xxcpplib/output/system_stm32h7xx.o
 .debug_line    0x00000000000036ec      0x240 /home/tony/workdir/stm32h7xxcpplib/output/printfremap.o
 .debug_line    0x000000000000392c      0xe24 /home/tony/workdir/stm32h7xxcpplib/output/main.o
 .debug_line    0x0000000000004750      0x544 /home/tony/workdir/stm32h7xxcpplib/output/board.o
 .debug_line    0x0000000000004c94      0x367 /home/tony/workdir/stm32h7xxcpplib/output/cpuport.o
 .debug_line    0x0000000000004ffb      0x478 /home/tony/workdir/stm32h7xxcpplib/output/mclock.o
 .debug_line    0x0000000000005473      0xa1a /home/tony/workdir/stm32h7xxcpplib/output/mcomponents.o
 .debug_line    0x0000000000005e8d      0x87d /home/tony/workdir/stm32h7xxcpplib/output/midle.o
 .debug_line    0x000000000000670a      0xc82 /home/tony/workdir/stm32h7xxcpplib/output/mipc.o
 .debug_line    0x000000000000738c      0x374 /home/tony/workdir/stm32h7xxcpplib/output/mirq.o
 .debug_line    0x0000000000007700      0x319 /home/tony/workdir/stm32h7xxcpplib/output/mkservice.o
 .debug_line    0x0000000000007a19      0x9a2 /home/tony/workdir/stm32h7xxcpplib/output/mmem.o
 .debug_line    0x00000000000083bb      0xa65 /home/tony/workdir/stm32h7xxcpplib/output/mobject.o
 .debug_line    0x0000000000008e20      0x8ab /home/tony/workdir/stm32h7xxcpplib/output/mscheduler.o
 .debug_line    0x00000000000096cb     0x15a0 /home/tony/workdir/stm32h7xxcpplib/output/mthread.o
 .debug_line    0x000000000000ac6b     0x1015 /home/tony/workdir/stm32h7xxcpplib/output/mtimer.o
 .debug_line    0x000000000000bc80      0x263 /home/tony/workdir/stm32h7xxcpplib/output/delay.o
 .debug_line    0x000000000000bee3     0x1fa8 /home/tony/workdir/stm32h7xxcpplib/output/systeminit.o

.debug_str      0x0000000000000000    0x1957b
 .debug_str     0x0000000000000000     0x1b5b /home/tony/workdir/stm32h7xxcpplib/output/isrcommon.o
                                       0x1d5e (size before relaxing)
 .debug_str     0x0000000000001b5b       0x3c /home/tony/workdir/stm32h7xxcpplib/output/w25qxx.o
                                        0x110 (size before relaxing)
 .debug_str     0x0000000000001b97       0x3a /home/tony/workdir/stm32h7xxcpplib/output/sdram.o
                                        0x10e (size before relaxing)
 .debug_str     0x0000000000001bd1       0x8d /home/tony/workdir/stm32h7xxcpplib/output/stm32h7xx_it.o
                                        0x161 (size before relaxing)
 .debug_str     0x0000000000001c5e      0x2b7 /home/tony/workdir/stm32h7xxcpplib/output/system_stm32h7xx.o
                                        0x5e7 (size before relaxing)
 .debug_str     0x0000000000001f15       0x51 /home/tony/workdir/stm32h7xxcpplib/output/printfremap.o
                                        0x209 (size before relaxing)
 .debug_str     0x0000000000001f66    0x125b8 /home/tony/workdir/stm32h7xxcpplib/output/main.o
                                      0x13d20 (size before relaxing)
 .debug_str     0x000000000001451e      0x446 /home/tony/workdir/stm32h7xxcpplib/output/board.o
                                       0x117f (size before relaxing)
 .debug_str     0x0000000000014964       0xfd /home/tony/workdir/stm32h7xxcpplib/output/cpuport.o
                                        0x6ae (size before relaxing)
 .debug_str     0x0000000000014a61      0x43f /home/tony/workdir/stm32h7xxcpplib/output/mclock.o
                                        0xba0 (size before relaxing)
 .debug_str     0x0000000000014ea0      0x424 /home/tony/workdir/stm32h7xxcpplib/output/mcomponents.o
                                       0x23e9 (size before relaxing)
 .debug_str     0x00000000000152c4      0x85d /home/tony/workdir/stm32h7xxcpplib/output/midle.o
                                       0x28d8 (size before relaxing)
 .debug_str     0x0000000000015b21       0x59 /home/tony/workdir/stm32h7xxcpplib/output/mipc.o
                                       0x273b (size before relaxing)
 .debug_str     0x0000000000015b7a       0x38 /home/tony/workdir/stm32h7xxcpplib/output/mirq.o
                                        0x4bc (size before relaxing)
 .debug_str     0x0000000000015bb2      0x135 /home/tony/workdir/stm32h7xxcpplib/output/mkservice.o
                                        0x47e (size before relaxing)
 .debug_str     0x0000000000015ce7       0x95 /home/tony/workdir/stm32h7xxcpplib/output/mmem.o
                                        0xe8d (size before relaxing)
 .debug_str     0x0000000000015d7c       0x5d /home/tony/workdir/stm32h7xxcpplib/output/mobject.o
                                        0xf87 (size before relaxing)
 .debug_str     0x0000000000015dd9       0xed /home/tony/workdir/stm32h7xxcpplib/output/mscheduler.o
                                        0xdc4 (size before relaxing)
 .debug_str     0x0000000000015ec6      0x5c1 /home/tony/workdir/stm32h7xxcpplib/output/mthread.o
                                       0x2c0d (size before relaxing)
 .debug_str     0x0000000000016487       0xfb /home/tony/workdir/stm32h7xxcpplib/output/mtimer.o
                                       0x21e6 (size before relaxing)
 .debug_str     0x0000000000016582       0xa8 /home/tony/workdir/stm32h7xxcpplib/output/delay.o
                                        0x3df (size before relaxing)
 .debug_str     0x000000000001662a     0x2f51 /home/tony/workdir/stm32h7xxcpplib/output/systeminit.o
                                       0xe1ed (size before relaxing)

.comment        0x0000000000000000       0x49
 .comment       0x0000000000000000       0x49 /home/tony/workdir/stm32h7xxcpplib/output/isrcommon.o
                                         0x4a (size before relaxing)
 .comment       0x0000000000000049       0x4a /home/tony/workdir/stm32h7xxcpplib/output/w25qxx.o
 .comment       0x0000000000000049       0x4a /home/tony/workdir/stm32h7xxcpplib/output/sdram.o
 .comment       0x0000000000000049       0x4a /home/tony/workdir/stm32h7xxcpplib/output/stm32h7xx_it.o
 .comment       0x0000000000000049       0x4a /home/tony/workdir/stm32h7xxcpplib/output/system_stm32h7xx.o
 .comment       0x0000000000000049       0x4a /home/tony/workdir/stm32h7xxcpplib/output/printfremap.o
 .comment       0x0000000000000049       0x4a /home/tony/workdir/stm32h7xxcpplib/output/main.o
 .comment       0x0000000000000049       0x4a /home/tony/workdir/stm32h7xxcpplib/output/board.o
 .comment       0x0000000000000049       0x4a /home/tony/workdir/stm32h7xxcpplib/output/cpuport.o
 .comment       0x0000000000000049       0x4a /home/tony/workdir/stm32h7xxcpplib/output/mclock.o
 .comment       0x0000000000000049       0x4a /home/tony/workdir/stm32h7xxcpplib/output/mcomponents.o
 .comment       0x0000000000000049       0x4a /home/tony/workdir/stm32h7xxcpplib/output/midle.o
 .comment       0x0000000000000049       0x4a /home/tony/workdir/stm32h7xxcpplib/output/mipc.o
 .comment       0x0000000000000049       0x4a /home/tony/workdir/stm32h7xxcpplib/output/mirq.o
 .comment       0x0000000000000049       0x4a /home/tony/workdir/stm32h7xxcpplib/output/mkservice.o
 .comment       0x0000000000000049       0x4a /home/tony/workdir/stm32h7xxcpplib/output/mmem.o
 .comment       0x0000000000000049       0x4a /home/tony/workdir/stm32h7xxcpplib/output/mobject.o
 .comment       0x0000000000000049       0x4a /home/tony/workdir/stm32h7xxcpplib/output/mscheduler.o
 .comment       0x0000000000000049       0x4a /home/tony/workdir/stm32h7xxcpplib/output/mthread.o
 .comment       0x0000000000000049       0x4a /home/tony/workdir/stm32h7xxcpplib/output/mtimer.o
 .comment       0x0000000000000049       0x4a /home/tony/workdir/stm32h7xxcpplib/output/delay.o
 .comment       0x0000000000000049       0x4a /home/tony/workdir/stm32h7xxcpplib/output/systeminit.o

.debug_frame    0x0000000000000000     0x28e8
 .debug_frame   0x0000000000000000      0x87c /home/tony/workdir/stm32h7xxcpplib/output/isrcommon.o
 .debug_frame   0x000000000000087c       0x60 /home/tony/workdir/stm32h7xxcpplib/output/stm32h7xx_it.o
 .debug_frame   0x00000000000008dc       0x3c /home/tony/workdir/stm32h7xxcpplib/output/system_stm32h7xx.o
 .debug_frame   0x0000000000000918       0x40 /home/tony/workdir/stm32h7xxcpplib/output/printfremap.o
 .debug_frame   0x0000000000000958      0x124 /home/tony/workdir/stm32h7xxcpplib/output/main.o
 .debug_frame   0x0000000000000a7c       0xa4 /home/tony/workdir/stm32h7xxcpplib/output/board.o
 .debug_frame   0x0000000000000b20       0x3c /home/tony/workdir/stm32h7xxcpplib/output/cpuport.o
 .debug_frame   0x0000000000000b5c       0x94 /home/tony/workdir/stm32h7xxcpplib/output/mclock.o
 .debug_frame   0x0000000000000bf0      0x118 /home/tony/workdir/stm32h7xxcpplib/output/mcomponents.o
 .debug_frame   0x0000000000000d08       0xe4 /home/tony/workdir/stm32h7xxcpplib/output/midle.o
 .debug_frame   0x0000000000000dec      0x1a8 /home/tony/workdir/stm32h7xxcpplib/output/mipc.o
 .debug_frame   0x0000000000000f94       0x80 /home/tony/workdir/stm32h7xxcpplib/output/mirq.o
 .debug_frame   0x0000000000001014       0x20 /home/tony/workdir/stm32h7xxcpplib/output/mkservice.o
 .debug_frame   0x0000000000001034      0x16c /home/tony/workdir/stm32h7xxcpplib/output/mmem.o
 .debug_frame   0x00000000000011a0      0x168 /home/tony/workdir/stm32h7xxcpplib/output/mobject.o
 .debug_frame   0x0000000000001308      0x1b8 /home/tony/workdir/stm32h7xxcpplib/output/mscheduler.o
 .debug_frame   0x00000000000014c0      0x3d4 /home/tony/workdir/stm32h7xxcpplib/output/mthread.o
 .debug_frame   0x0000000000001894      0x2bc /home/tony/workdir/stm32h7xxcpplib/output/mtimer.o
 .debug_frame   0x0000000000001b50       0x58 /home/tony/workdir/stm32h7xxcpplib/output/delay.o
 .debug_frame   0x0000000000001ba8      0x290 /home/tony/workdir/stm32h7xxcpplib/output/systeminit.o
 .debug_frame   0x0000000000001e38       0x20 /opt/gcc-arm-none-eabi-10.3-2021.10/bin/../lib/gcc/arm-none-eabi/10.3.1/../../../../arm-none-eabi/lib/thumb/v7e-m+fp/hard/libc_nano.a(lib_a-aeabi_atexit.o)
 .debug_frame   0x0000000000001e58       0x28 /opt/gcc-arm-none-eabi-10.3-2021.10/bin/../lib/gcc/arm-none-eabi/10.3.1/../../../../arm-none-eabi/lib/thumb/v7e-m+fp/hard/libc_nano.a(lib_a-cxa_atexit.o)
 .debug_frame   0x0000000000001e80       0x28 /opt/gcc-arm-none-eabi-10.3-2021.10/bin/../lib/gcc/arm-none-eabi/10.3.1/../../../../arm-none-eabi/lib/thumb/v7e-m+fp/hard/libc_nano.a(lib_a-exit.o)
 .debug_frame   0x0000000000001ea8       0x2c /opt/gcc-arm-none-eabi-10.3-2021.10/bin/../lib/gcc/arm-none-eabi/10.3.1/../../../../arm-none-eabi/lib/thumb/v7e-m+fp/hard/libc_nano.a(lib_a-init.o)
 .debug_frame   0x0000000000001ed4       0x28 /opt/gcc-arm-none-eabi-10.3-2021.10/bin/../lib/gcc/arm-none-eabi/10.3.1/../../../../arm-none-eabi/lib/thumb/v7e-m+fp/hard/libc_nano.a(lib_a-memcpy-stub.o)
 .debug_frame   0x0000000000001efc       0x20 /opt/gcc-arm-none-eabi-10.3-2021.10/bin/../lib/gcc/arm-none-eabi/10.3.1/../../../../arm-none-eabi/lib/thumb/v7e-m+fp/hard/libc_nano.a(lib_a-memset.o)
 .debug_frame   0x0000000000001f1c       0x74 /opt/gcc-arm-none-eabi-10.3-2021.10/bin/../lib/gcc/arm-none-eabi/10.3.1/../../../../arm-none-eabi/lib/thumb/v7e-m+fp/hard/libc_nano.a(lib_a-printf.o)
 .debug_frame   0x0000000000001f90       0x28 /opt/gcc-arm-none-eabi-10.3-2021.10/bin/../lib/gcc/arm-none-eabi/10.3.1/../../../../arm-none-eabi/lib/thumb/v7e-m+fp/hard/libc_nano.a(lib_a-strncmp.o)
 .debug_frame   0x0000000000001fb8       0x28 /opt/gcc-arm-none-eabi-10.3-2021.10/bin/../lib/gcc/arm-none-eabi/10.3.1/../../../../arm-none-eabi/lib/thumb/v7e-m+fp/hard/libc_nano.a(lib_a-strncpy.o)
 .debug_frame   0x0000000000001fe0      0x14c /opt/gcc-arm-none-eabi-10.3-2021.10/bin/../lib/gcc/arm-none-eabi/10.3.1/../../../../arm-none-eabi/lib/thumb/v7e-m+fp/hard/libc_nano.a(lib_a-findfp.o)
 .debug_frame   0x000000000000212c       0x54 /opt/gcc-arm-none-eabi-10.3-2021.10/bin/../lib/gcc/arm-none-eabi/10.3.1/../../../../arm-none-eabi/lib/thumb/v7e-m+fp/hard/libc_nano.a(lib_a-fwalk.o)
 .debug_frame   0x0000000000002180       0xb0 /opt/gcc-arm-none-eabi-10.3-2021.10/bin/../lib/gcc/arm-none-eabi/10.3.1/../../../../arm-none-eabi/lib/thumb/v7e-m+fp/hard/libc_nano.a(lib_a-lock.o)
 .debug_frame   0x0000000000002230       0x4c /opt/gcc-arm-none-eabi-10.3-2021.10/bin/../lib/gcc/arm-none-eabi/10.3.1/../../../../arm-none-eabi/lib/thumb/v7e-m+fp/hard/libc_nano.a(lib_a-nano-mallocr.o)
 .debug_frame   0x000000000000227c       0xac /opt/gcc-arm-none-eabi-10.3-2021.10/bin/../lib/gcc/arm-none-eabi/10.3.1/../../../../arm-none-eabi/lib/thumb/v7e-m+fp/hard/libc_nano.a(lib_a-nano-vfprintf.o)
 .debug_frame   0x0000000000002328       0x60 /opt/gcc-arm-none-eabi-10.3-2021.10/bin/../lib/gcc/arm-none-eabi/10.3.1/../../../../arm-none-eabi/lib/thumb/v7e-m+fp/hard/libc_nano.a(lib_a-nano-vfprintf_i.o)
 .debug_frame   0x0000000000002388       0x2c /opt/gcc-arm-none-eabi-10.3-2021.10/bin/../lib/gcc/arm-none-eabi/10.3.1/../../../../arm-none-eabi/lib/thumb/v7e-m+fp/hard/libc_nano.a(lib_a-sbrkr.o)
 .debug_frame   0x00000000000023b4       0x88 /opt/gcc-arm-none-eabi-10.3-2021.10/bin/../lib/gcc/arm-none-eabi/10.3.1/../../../../arm-none-eabi/lib/thumb/v7e-m+fp/hard/libc_nano.a(lib_a-stdio.o)
 .debug_frame   0x000000000000243c       0x40 /opt/gcc-arm-none-eabi-10.3-2021.10/bin/../lib/gcc/arm-none-eabi/10.3.1/../../../../arm-none-eabi/lib/thumb/v7e-m+fp/hard/libc_nano.a(lib_a-wbuf.o)
 .debug_frame   0x000000000000247c       0x2c /opt/gcc-arm-none-eabi-10.3-2021.10/bin/../lib/gcc/arm-none-eabi/10.3.1/../../../../arm-none-eabi/lib/thumb/v7e-m+fp/hard/libc_nano.a(lib_a-writer.o)
 .debug_frame   0x00000000000024a8       0x2c /opt/gcc-arm-none-eabi-10.3-2021.10/bin/../lib/gcc/arm-none-eabi/10.3.1/../../../../arm-none-eabi/lib/thumb/v7e-m+fp/hard/libc_nano.a(lib_a-wsetup.o)
 .debug_frame   0x00000000000024d4       0x2c /opt/gcc-arm-none-eabi-10.3-2021.10/bin/../lib/gcc/arm-none-eabi/10.3.1/../../../../arm-none-eabi/lib/thumb/v7e-m+fp/hard/libc_nano.a(lib_a-closer.o)
 .debug_frame   0x0000000000002500       0x5c /opt/gcc-arm-none-eabi-10.3-2021.10/bin/../lib/gcc/arm-none-eabi/10.3.1/../../../../arm-none-eabi/lib/thumb/v7e-m+fp/hard/libc_nano.a(lib_a-fflush.o)
 .debug_frame   0x000000000000255c       0x3c /opt/gcc-arm-none-eabi-10.3-2021.10/bin/../lib/gcc/arm-none-eabi/10.3.1/../../../../arm-none-eabi/lib/thumb/v7e-m+fp/hard/libc_nano.a(lib_a-fvwrite.o)
 .debug_frame   0x0000000000002598       0x2c /opt/gcc-arm-none-eabi-10.3-2021.10/bin/../lib/gcc/arm-none-eabi/10.3.1/../../../../arm-none-eabi/lib/thumb/v7e-m+fp/hard/libc_nano.a(lib_a-lseekr.o)
 .debug_frame   0x00000000000025c4       0x58 /opt/gcc-arm-none-eabi-10.3-2021.10/bin/../lib/gcc/arm-none-eabi/10.3.1/../../../../arm-none-eabi/lib/thumb/v7e-m+fp/hard/libc_nano.a(lib_a-makebuf.o)
 .debug_frame   0x000000000000261c       0x28 /opt/gcc-arm-none-eabi-10.3-2021.10/bin/../lib/gcc/arm-none-eabi/10.3.1/../../../../arm-none-eabi/lib/thumb/v7e-m+fp/hard/libc_nano.a(lib_a-memmove.o)
 .debug_frame   0x0000000000002644       0x30 /opt/gcc-arm-none-eabi-10.3-2021.10/bin/../lib/gcc/arm-none-eabi/10.3.1/../../../../arm-none-eabi/lib/thumb/v7e-m+fp/hard/libc_nano.a(lib_a-mlock.o)
 .debug_frame   0x0000000000002674       0x38 /opt/gcc-arm-none-eabi-10.3-2021.10/bin/../lib/gcc/arm-none-eabi/10.3.1/../../../../arm-none-eabi/lib/thumb/v7e-m+fp/hard/libc_nano.a(lib_a-nano-freer.o)
 .debug_frame   0x00000000000026ac       0x3c /opt/gcc-arm-none-eabi-10.3-2021.10/bin/../lib/gcc/arm-none-eabi/10.3.1/../../../../arm-none-eabi/lib/thumb/v7e-m+fp/hard/libc_nano.a(lib_a-nano-reallocr.o)
 .debug_frame   0x00000000000026e8       0x2c /opt/gcc-arm-none-eabi-10.3-2021.10/bin/../lib/gcc/arm-none-eabi/10.3.1/../../../../arm-none-eabi/lib/thumb/v7e-m+fp/hard/libc_nano.a(lib_a-readr.o)
 .debug_frame   0x0000000000002714       0x5c /opt/gcc-arm-none-eabi-10.3-2021.10/bin/../lib/gcc/arm-none-eabi/10.3.1/../../../../arm-none-eabi/lib/thumb/v7e-m+fp/hard/libc_nano.a(lib_a-reent.o)
 .debug_frame   0x0000000000002770       0x2c /opt/gcc-arm-none-eabi-10.3-2021.10/bin/../lib/gcc/arm-none-eabi/10.3.1/../../../../arm-none-eabi/lib/thumb/v7e-m+fp/hard/libc_nano.a(lib_a-fstatr.o)
 .debug_frame   0x000000000000279c       0x2c /opt/gcc-arm-none-eabi-10.3-2021.10/bin/../lib/gcc/arm-none-eabi/10.3.1/../../../../arm-none-eabi/lib/thumb/v7e-m+fp/hard/libc_nano.a(lib_a-isattyr.o)
 .debug_frame   0x00000000000027c8       0x20 /opt/gcc-arm-none-eabi-10.3-2021.10/bin/../lib/gcc/arm-none-eabi/10.3.1/../../../../arm-none-eabi/lib/thumb/v7e-m+fp/hard/libc_nano.a(lib_a-nano-msizer.o)
 .debug_frame   0x00000000000027e8       0x40 /opt/gcc-arm-none-eabi-10.3-2021.10/bin/../lib/gcc/arm-none-eabi/10.3.1/../../../../arm-none-eabi/lib/thumb/v7e-m+fp/hard/libstdc++_nano.a(guard.o)
 .debug_frame   0x0000000000002828       0x20 /opt/gcc-arm-none-eabi-10.3-2021.10/bin/../lib/gcc/arm-none-eabi/10.3.1/../../../../arm-none-eabi/lib/thumb/v7e-m+fp/hard/libnosys.a(close.o)
 .debug_frame   0x0000000000002848       0x20 /opt/gcc-arm-none-eabi-10.3-2021.10/bin/../lib/gcc/arm-none-eabi/10.3.1/../../../../arm-none-eabi/lib/thumb/v7e-m+fp/hard/libnosys.a(fstat.o)
 .debug_frame   0x0000000000002868       0x20 /opt/gcc-arm-none-eabi-10.3-2021.10/bin/../lib/gcc/arm-none-eabi/10.3.1/../../../../arm-none-eabi/lib/thumb/v7e-m+fp/hard/libnosys.a(isatty.o)
 .debug_frame   0x0000000000002888       0x20 /opt/gcc-arm-none-eabi-10.3-2021.10/bin/../lib/gcc/arm-none-eabi/10.3.1/../../../../arm-none-eabi/lib/thumb/v7e-m+fp/hard/libnosys.a(lseek.o)
 .debug_frame   0x00000000000028a8       0x20 /opt/gcc-arm-none-eabi-10.3-2021.10/bin/../lib/gcc/arm-none-eabi/10.3.1/../../../../arm-none-eabi/lib/thumb/v7e-m+fp/hard/libnosys.a(sbrk.o)
 .debug_frame   0x00000000000028c8       0x20 /opt/gcc-arm-none-eabi-10.3-2021.10/bin/../lib/gcc/arm-none-eabi/10.3.1/../../../../arm-none-eabi/lib/thumb/v7e-m+fp/hard/libnosys.a(_exit.o)

.stab           0x0000000000000000       0x6c
 .stab          0x0000000000000000       0x24 /opt/gcc-arm-none-eabi-10.3-2021.10/bin/../lib/gcc/arm-none-eabi/10.3.1/../../../../arm-none-eabi/lib/thumb/v7e-m+fp/hard/libnosys.a(close.o)
 .stab          0x0000000000000024       0x18 /opt/gcc-arm-none-eabi-10.3-2021.10/bin/../lib/gcc/arm-none-eabi/10.3.1/../../../../arm-none-eabi/lib/thumb/v7e-m+fp/hard/libnosys.a(fstat.o)
                                         0x24 (size before relaxing)
 .stab          0x000000000000003c       0x18 /opt/gcc-arm-none-eabi-10.3-2021.10/bin/../lib/gcc/arm-none-eabi/10.3.1/../../../../arm-none-eabi/lib/thumb/v7e-m+fp/hard/libnosys.a(isatty.o)
                                         0x24 (size before relaxing)
 .stab          0x0000000000000054       0x18 /opt/gcc-arm-none-eabi-10.3-2021.10/bin/../lib/gcc/arm-none-eabi/10.3.1/../../../../arm-none-eabi/lib/thumb/v7e-m+fp/hard/libnosys.a(lseek.o)
                                         0x24 (size before relaxing)

.stabstr        0x0000000000000000       0xe3
 .stabstr       0x0000000000000000       0xe3 /opt/gcc-arm-none-eabi-10.3-2021.10/bin/../lib/gcc/arm-none-eabi/10.3.1/../../../../arm-none-eabi/lib/thumb/v7e-m+fp/hard/libnosys.a(close.o)

Cross Reference Table

Symbol                                            File
ADC3_IRQHandler                                   /home/tony/workdir/stm32h7xxcpplib/output/startup_stm32h750xx.o
ADC_IRQHandler                                    /home/tony/workdir/stm32h7xxcpplib/output/startup_stm32h750xx.o
BDMA_Channel0_IRQHandler                          /home/tony/workdir/stm32h7xxcpplib/output/isrcommon.o
                                                  /home/tony/workdir/stm32h7xxcpplib/output/startup_stm32h750xx.o
BDMA_Channel1_IRQHandler                          /home/tony/workdir/stm32h7xxcpplib/output/isrcommon.o
                                                  /home/tony/workdir/stm32h7xxcpplib/output/startup_stm32h750xx.o
BDMA_Channel2_IRQHandler                          /home/tony/workdir/stm32h7xxcpplib/output/isrcommon.o
                                                  /home/tony/workdir/stm32h7xxcpplib/output/startup_stm32h750xx.o
BDMA_Channel3_IRQHandler                          /home/tony/workdir/stm32h7xxcpplib/output/isrcommon.o
                                                  /home/tony/workdir/stm32h7xxcpplib/output/startup_stm32h750xx.o
BDMA_Channel4_IRQHandler                          /home/tony/workdir/stm32h7xxcpplib/output/isrcommon.o
                                                  /home/tony/workdir/stm32h7xxcpplib/output/startup_stm32h750xx.o
BDMA_Channel5_IRQHandler                          /home/tony/workdir/stm32h7xxcpplib/output/isrcommon.o
                                                  /home/tony/workdir/stm32h7xxcpplib/output/startup_stm32h750xx.o
BDMA_Channel6_IRQHandler                          /home/tony/workdir/stm32h7xxcpplib/output/isrcommon.o
                                                  /home/tony/workdir/stm32h7xxcpplib/output/startup_stm32h750xx.o
BDMA_Channel7_IRQHandler                          /home/tony/workdir/stm32h7xxcpplib/output/isrcommon.o
                                                  /home/tony/workdir/stm32h7xxcpplib/output/startup_stm32h750xx.o
BusFault_Handler                                  /home/tony/workdir/stm32h7xxcpplib/output/stm32h7xx_it.o
                                                  /home/tony/workdir/stm32h7xxcpplib/output/startup_stm32h750xx.o
CEC_IRQHandler                                    /home/tony/workdir/stm32h7xxcpplib/output/startup_stm32h750xx.o
COMP1_IRQHandler                                  /home/tony/workdir/stm32h7xxcpplib/output/startup_stm32h750xx.o
CORTEX::getInstance()                             /home/tony/workdir/stm32h7xxcpplib/output/systeminit.o
CORTEX::getInstance()::cortex                     /home/tony/workdir/stm32h7xxcpplib/output/systeminit.o
CORTEX::~CORTEX()                                 /home/tony/workdir/stm32h7xxcpplib/output/systeminit.o
CORTEX::~CORTEX()                                 /home/tony/workdir/stm32h7xxcpplib/output/systeminit.o
CORTEXM7MPU::getInstance()                        /home/tony/workdir/stm32h7xxcpplib/output/systeminit.o
CORTEXM7MPU::getInstance()::mpu                   /home/tony/workdir/stm32h7xxcpplib/output/systeminit.o
CORTEXM7MPU::~CORTEXM7MPU()                       /home/tony/workdir/stm32h7xxcpplib/output/systeminit.o
CORTEXM7MPU::~CORTEXM7MPU()                       /home/tony/workdir/stm32h7xxcpplib/output/systeminit.o
CRS_IRQHandler                                    /home/tony/workdir/stm32h7xxcpplib/output/startup_stm32h750xx.o
CRYP_IRQHandler                                   /home/tony/workdir/stm32h7xxcpplib/output/startup_stm32h750xx.o
D1CorePrescTable                                  /home/tony/workdir/stm32h7xxcpplib/output/system_stm32h7xx.o
DCMI_IRQHandler                                   /home/tony/workdir/stm32h7xxcpplib/output/startup_stm32h750xx.o
DFSDM1_FLT0_IRQHandler                            /home/tony/workdir/stm32h7xxcpplib/output/startup_stm32h750xx.o
DFSDM1_FLT1_IRQHandler                            /home/tony/workdir/stm32h7xxcpplib/output/startup_stm32h750xx.o
DFSDM1_FLT2_IRQHandler                            /home/tony/workdir/stm32h7xxcpplib/output/startup_stm32h750xx.o
DFSDM1_FLT3_IRQHandler                            /home/tony/workdir/stm32h7xxcpplib/output/startup_stm32h750xx.o
DMA1_Stream0_IRQHandler                           /home/tony/workdir/stm32h7xxcpplib/output/isrcommon.o
                                                  /home/tony/workdir/stm32h7xxcpplib/output/startup_stm32h750xx.o
DMA1_Stream1_IRQHandler                           /home/tony/workdir/stm32h7xxcpplib/output/isrcommon.o
                                                  /home/tony/workdir/stm32h7xxcpplib/output/startup_stm32h750xx.o
DMA1_Stream2_IRQHandler                           /home/tony/workdir/stm32h7xxcpplib/output/isrcommon.o
                                                  /home/tony/workdir/stm32h7xxcpplib/output/startup_stm32h750xx.o
DMA1_Stream3_IRQHandler                           /home/tony/workdir/stm32h7xxcpplib/output/isrcommon.o
                                                  /home/tony/workdir/stm32h7xxcpplib/output/startup_stm32h750xx.o
DMA1_Stream4_IRQHandler                           /home/tony/workdir/stm32h7xxcpplib/output/isrcommon.o
                                                  /home/tony/workdir/stm32h7xxcpplib/output/startup_stm32h750xx.o
DMA1_Stream5_IRQHandler                           /home/tony/workdir/stm32h7xxcpplib/output/isrcommon.o
                                                  /home/tony/workdir/stm32h7xxcpplib/output/startup_stm32h750xx.o
DMA1_Stream6_IRQHandler                           /home/tony/workdir/stm32h7xxcpplib/output/isrcommon.o
                                                  /home/tony/workdir/stm32h7xxcpplib/output/startup_stm32h750xx.o
DMA1_Stream7_IRQHandler                           /home/tony/workdir/stm32h7xxcpplib/output/isrcommon.o
                                                  /home/tony/workdir/stm32h7xxcpplib/output/startup_stm32h750xx.o
DMA2D_IRQHandler                                  /home/tony/workdir/stm32h7xxcpplib/output/startup_stm32h750xx.o
DMA2_Stream0_IRQHandler                           /home/tony/workdir/stm32h7xxcpplib/output/isrcommon.o
                                                  /home/tony/workdir/stm32h7xxcpplib/output/startup_stm32h750xx.o
DMA2_Stream1_IRQHandler                           /home/tony/workdir/stm32h7xxcpplib/output/isrcommon.o
                                                  /home/tony/workdir/stm32h7xxcpplib/output/startup_stm32h750xx.o
DMA2_Stream2_IRQHandler                           /home/tony/workdir/stm32h7xxcpplib/output/isrcommon.o
                                                  /home/tony/workdir/stm32h7xxcpplib/output/startup_stm32h750xx.o
DMA2_Stream3_IRQHandler                           /home/tony/workdir/stm32h7xxcpplib/output/isrcommon.o
                                                  /home/tony/workdir/stm32h7xxcpplib/output/startup_stm32h750xx.o
DMA2_Stream4_IRQHandler                           /home/tony/workdir/stm32h7xxcpplib/output/isrcommon.o
                                                  /home/tony/workdir/stm32h7xxcpplib/output/startup_stm32h750xx.o
DMA2_Stream5_IRQHandler                           /home/tony/workdir/stm32h7xxcpplib/output/isrcommon.o
                                                  /home/tony/workdir/stm32h7xxcpplib/output/startup_stm32h750xx.o
DMA2_Stream6_IRQHandler                           /home/tony/workdir/stm32h7xxcpplib/output/isrcommon.o
                                                  /home/tony/workdir/stm32h7xxcpplib/output/startup_stm32h750xx.o
DMA2_Stream7_IRQHandler                           /home/tony/workdir/stm32h7xxcpplib/output/isrcommon.o
                                                  /home/tony/workdir/stm32h7xxcpplib/output/startup_stm32h750xx.o
DMAMUX1_OVR_IRQHandler                            /home/tony/workdir/stm32h7xxcpplib/output/isrcommon.o
                                                  /home/tony/workdir/stm32h7xxcpplib/output/startup_stm32h750xx.o
DMAMUX2_OVR_IRQHandler                            /home/tony/workdir/stm32h7xxcpplib/output/isrcommon.o
                                                  /home/tony/workdir/stm32h7xxcpplib/output/startup_stm32h750xx.o
DebugMon_Handler                                  /home/tony/workdir/stm32h7xxcpplib/output/stm32h7xx_it.o
                                                  /home/tony/workdir/stm32h7xxcpplib/output/startup_stm32h750xx.o
Default_Handler                                   /home/tony/workdir/stm32h7xxcpplib/output/startup_stm32h750xx.o
ECC_IRQHandler                                    /home/tony/workdir/stm32h7xxcpplib/output/startup_stm32h750xx.o
ETH_IRQHandler                                    /home/tony/workdir/stm32h7xxcpplib/output/startup_stm32h750xx.o
ETH_WKUP_IRQHandler                               /home/tony/workdir/stm32h7xxcpplib/output/startup_stm32h750xx.o
EXTI0_IRQHandler                                  /home/tony/workdir/stm32h7xxcpplib/output/isrcommon.o
                                                  /home/tony/workdir/stm32h7xxcpplib/output/startup_stm32h750xx.o
EXTI15_10_IRQHandler                              /home/tony/workdir/stm32h7xxcpplib/output/isrcommon.o
                                                  /home/tony/workdir/stm32h7xxcpplib/output/startup_stm32h750xx.o
EXTI1_IRQHandler                                  /home/tony/workdir/stm32h7xxcpplib/output/isrcommon.o
                                                  /home/tony/workdir/stm32h7xxcpplib/output/startup_stm32h750xx.o
EXTI2_IRQHandler                                  /home/tony/workdir/stm32h7xxcpplib/output/isrcommon.o
                                                  /home/tony/workdir/stm32h7xxcpplib/output/startup_stm32h750xx.o
EXTI3_IRQHandler                                  /home/tony/workdir/stm32h7xxcpplib/output/isrcommon.o
                                                  /home/tony/workdir/stm32h7xxcpplib/output/startup_stm32h750xx.o
EXTI4_IRQHandler                                  /home/tony/workdir/stm32h7xxcpplib/output/isrcommon.o
                                                  /home/tony/workdir/stm32h7xxcpplib/output/startup_stm32h750xx.o
EXTI9_5_IRQHandler                                /home/tony/workdir/stm32h7xxcpplib/output/isrcommon.o
                                                  /home/tony/workdir/stm32h7xxcpplib/output/startup_stm32h750xx.o
FDCAN1_IT0_IRQHandler                             /home/tony/workdir/stm32h7xxcpplib/output/startup_stm32h750xx.o
FDCAN1_IT1_IRQHandler                             /home/tony/workdir/stm32h7xxcpplib/output/startup_stm32h750xx.o
FDCAN2_IT0_IRQHandler                             /home/tony/workdir/stm32h7xxcpplib/output/startup_stm32h750xx.o
FDCAN2_IT1_IRQHandler                             /home/tony/workdir/stm32h7xxcpplib/output/startup_stm32h750xx.o
FDCAN_CAL_IRQHandler                              /home/tony/workdir/stm32h7xxcpplib/output/startup_stm32h750xx.o
FLASH_IRQHandler                                  /home/tony/workdir/stm32h7xxcpplib/output/startup_stm32h750xx.o
FMC_IRQHandler                                    /home/tony/workdir/stm32h7xxcpplib/output/startup_stm32h750xx.o
FPU_IRQHandler                                    /home/tony/workdir/stm32h7xxcpplib/output/startup_stm32h750xx.o
HASH_RNG_IRQHandler                               /home/tony/workdir/stm32h7xxcpplib/output/startup_stm32h750xx.o
HRTIM1_FLT_IRQHandler                             /home/tony/workdir/stm32h7xxcpplib/output/startup_stm32h750xx.o
HRTIM1_Master_IRQHandler                          /home/tony/workdir/stm32h7xxcpplib/output/startup_stm32h750xx.o
HRTIM1_TIMA_IRQHandler                            /home/tony/workdir/stm32h7xxcpplib/output/startup_stm32h750xx.o
HRTIM1_TIMB_IRQHandler                            /home/tony/workdir/stm32h7xxcpplib/output/startup_stm32h750xx.o
HRTIM1_TIMC_IRQHandler                            /home/tony/workdir/stm32h7xxcpplib/output/startup_stm32h750xx.o
HRTIM1_TIMD_IRQHandler                            /home/tony/workdir/stm32h7xxcpplib/output/startup_stm32h750xx.o
HRTIM1_TIME_IRQHandler                            /home/tony/workdir/stm32h7xxcpplib/output/startup_stm32h750xx.o
HSEM1_IRQHandler                                  /home/tony/workdir/stm32h7xxcpplib/output/startup_stm32h750xx.o
HardFault_Handler                                 /home/tony/workdir/stm32h7xxcpplib/output/context_gcc.o
                                                  /home/tony/workdir/stm32h7xxcpplib/output/startup_stm32h750xx.o
I2C1_ER_IRQHandler                                /home/tony/workdir/stm32h7xxcpplib/output/startup_stm32h750xx.o
I2C1_EV_IRQHandler                                /home/tony/workdir/stm32h7xxcpplib/output/startup_stm32h750xx.o
I2C2_ER_IRQHandler                                /home/tony/workdir/stm32h7xxcpplib/output/startup_stm32h750xx.o
I2C2_EV_IRQHandler                                /home/tony/workdir/stm32h7xxcpplib/output/startup_stm32h750xx.o
I2C3_ER_IRQHandler                                /home/tony/workdir/stm32h7xxcpplib/output/startup_stm32h750xx.o
I2C3_EV_IRQHandler                                /home/tony/workdir/stm32h7xxcpplib/output/startup_stm32h750xx.o
I2C4_ER_IRQHandler                                /home/tony/workdir/stm32h7xxcpplib/output/startup_stm32h750xx.o
I2C4_EV_IRQHandler                                /home/tony/workdir/stm32h7xxcpplib/output/startup_stm32h750xx.o
JPEG_IRQHandler                                   /home/tony/workdir/stm32h7xxcpplib/output/startup_stm32h750xx.o
LED::LED(GPIO_TypeDef*, unsigned long, bool)      /home/tony/workdir/stm32h7xxcpplib/output/main.o
LED::LED(GPIO_TypeDef*, unsigned long, bool)      /home/tony/workdir/stm32h7xxcpplib/output/main.o
LED::off()                                        /home/tony/workdir/stm32h7xxcpplib/output/main.o
LED::reverse()                                    /home/tony/workdir/stm32h7xxcpplib/output/main.o
LPTIM1_IRQHandler                                 /home/tony/workdir/stm32h7xxcpplib/output/isrcommon.o
                                                  /home/tony/workdir/stm32h7xxcpplib/output/startup_stm32h750xx.o
LPTIM2_IRQHandler                                 /home/tony/workdir/stm32h7xxcpplib/output/isrcommon.o
                                                  /home/tony/workdir/stm32h7xxcpplib/output/startup_stm32h750xx.o
LPTIM3_IRQHandler                                 /home/tony/workdir/stm32h7xxcpplib/output/isrcommon.o
                                                  /home/tony/workdir/stm32h7xxcpplib/output/startup_stm32h750xx.o
LPTIM4_IRQHandler                                 /home/tony/workdir/stm32h7xxcpplib/output/isrcommon.o
                                                  /home/tony/workdir/stm32h7xxcpplib/output/startup_stm32h750xx.o
LPTIM5_IRQHandler                                 /home/tony/workdir/stm32h7xxcpplib/output/isrcommon.o
                                                  /home/tony/workdir/stm32h7xxcpplib/output/startup_stm32h750xx.o
LPUART1_IRQHandler                                /home/tony/workdir/stm32h7xxcpplib/output/startup_stm32h750xx.o
LTDC_ER_IRQHandler                                /home/tony/workdir/stm32h7xxcpplib/output/startup_stm32h750xx.o
LTDC_IRQHandler                                   /home/tony/workdir/stm32h7xxcpplib/output/startup_stm32h750xx.o
MDIOS_IRQHandler                                  /home/tony/workdir/stm32h7xxcpplib/output/startup_stm32h750xx.o
MDIOS_WKUP_IRQHandler                             /home/tony/workdir/stm32h7xxcpplib/output/startup_stm32h750xx.o
MDMA_IRQHandler                                   /home/tony/workdir/stm32h7xxcpplib/output/startup_stm32h750xx.o
MemManage_Handler                                 /home/tony/workdir/stm32h7xxcpplib/output/stm32h7xx_it.o
                                                  /home/tony/workdir/stm32h7xxcpplib/output/startup_stm32h750xx.o
NMI_Handler                                       /home/tony/workdir/stm32h7xxcpplib/output/stm32h7xx_it.o
                                                  /home/tony/workdir/stm32h7xxcpplib/output/startup_stm32h750xx.o
OTG_FS_EP1_IN_IRQHandler                          /home/tony/workdir/stm32h7xxcpplib/output/startup_stm32h750xx.o
OTG_FS_EP1_OUT_IRQHandler                         /home/tony/workdir/stm32h7xxcpplib/output/startup_stm32h750xx.o
OTG_FS_IRQHandler                                 /home/tony/workdir/stm32h7xxcpplib/output/startup_stm32h750xx.o
OTG_FS_WKUP_IRQHandler                            /home/tony/workdir/stm32h7xxcpplib/output/startup_stm32h750xx.o
OTG_HS_EP1_IN_IRQHandler                          /home/tony/workdir/stm32h7xxcpplib/output/startup_stm32h750xx.o
OTG_HS_EP1_OUT_IRQHandler                         /home/tony/workdir/stm32h7xxcpplib/output/startup_stm32h750xx.o
OTG_HS_IRQHandler                                 /home/tony/workdir/stm32h7xxcpplib/output/startup_stm32h750xx.o
OTG_HS_WKUP_IRQHandler                            /home/tony/workdir/stm32h7xxcpplib/output/startup_stm32h750xx.o
PVD_AVD_IRQHandler                                /home/tony/workdir/stm32h7xxcpplib/output/startup_stm32h750xx.o
PendSV_Handler                                    /home/tony/workdir/stm32h7xxcpplib/output/context_gcc.o
                                                  /home/tony/workdir/stm32h7xxcpplib/output/startup_stm32h750xx.o
QUADSPI_IRQHandler                                /home/tony/workdir/stm32h7xxcpplib/output/startup_stm32h750xx.o
RCCControl::getInstance()                         /home/tony/workdir/stm32h7xxcpplib/output/systeminit.o
RCCControl::getInstance()::rcc_                   /home/tony/workdir/stm32h7xxcpplib/output/main.o
                                                  /home/tony/workdir/stm32h7xxcpplib/output/systeminit.o
RCCControl::~RCCControl()                         /home/tony/workdir/stm32h7xxcpplib/output/main.o
                                                  /home/tony/workdir/stm32h7xxcpplib/output/systeminit.o
RCCControl::~RCCControl()                         /home/tony/workdir/stm32h7xxcpplib/output/main.o
                                                  /home/tony/workdir/stm32h7xxcpplib/output/systeminit.o
RCC_IRQHandler                                    /home/tony/workdir/stm32h7xxcpplib/output/startup_stm32h750xx.o
RTC_Alarm_IRQHandler                              /home/tony/workdir/stm32h7xxcpplib/output/isrcommon.o
                                                  /home/tony/workdir/stm32h7xxcpplib/output/startup_stm32h750xx.o
RTC_WKUP_IRQHandler                               /home/tony/workdir/stm32h7xxcpplib/output/isrcommon.o
                                                  /home/tony/workdir/stm32h7xxcpplib/output/startup_stm32h750xx.o
Reset_Handler                                     /home/tony/workdir/stm32h7xxcpplib/output/startup_stm32h750xx.o
SAI1_IRQHandler                                   /home/tony/workdir/stm32h7xxcpplib/output/startup_stm32h750xx.o
SAI2_IRQHandler                                   /home/tony/workdir/stm32h7xxcpplib/output/startup_stm32h750xx.o
SAI3_IRQHandler                                   /home/tony/workdir/stm32h7xxcpplib/output/startup_stm32h750xx.o
SAI4_IRQHandler                                   /home/tony/workdir/stm32h7xxcpplib/output/startup_stm32h750xx.o
SDMMC1_IRQHandler                                 /home/tony/workdir/stm32h7xxcpplib/output/startup_stm32h750xx.o
SDMMC2_IRQHandler                                 /home/tony/workdir/stm32h7xxcpplib/output/startup_stm32h750xx.o
SPDIF_RX_IRQHandler                               /home/tony/workdir/stm32h7xxcpplib/output/startup_stm32h750xx.o
SPI1_IRQHandler                                   /home/tony/workdir/stm32h7xxcpplib/output/startup_stm32h750xx.o
SPI2_IRQHandler                                   /home/tony/workdir/stm32h7xxcpplib/output/startup_stm32h750xx.o
SPI3_IRQHandler                                   /home/tony/workdir/stm32h7xxcpplib/output/startup_stm32h750xx.o
SPI4_IRQHandler                                   /home/tony/workdir/stm32h7xxcpplib/output/startup_stm32h750xx.o
SPI5_IRQHandler                                   /home/tony/workdir/stm32h7xxcpplib/output/startup_stm32h750xx.o
SPI6_IRQHandler                                   /home/tony/workdir/stm32h7xxcpplib/output/startup_stm32h750xx.o
SVC_Handler                                       /home/tony/workdir/stm32h7xxcpplib/output/startup_stm32h750xx.o
SWPMI1_IRQHandler                                 /home/tony/workdir/stm32h7xxcpplib/output/startup_stm32h750xx.o
SysTick_Handler                                   /home/tony/workdir/stm32h7xxcpplib/output/board.o
                                                  /home/tony/workdir/stm32h7xxcpplib/output/startup_stm32h750xx.o
SystemCoreClock                                   /home/tony/workdir/stm32h7xxcpplib/output/system_stm32h7xx.o
                                                  /home/tony/workdir/stm32h7xxcpplib/output/isrcommon.o
SystemCoreClockUpdate                             /home/tony/workdir/stm32h7xxcpplib/output/system_stm32h7xx.o
                                                  /home/tony/workdir/stm32h7xxcpplib/output/systeminit.o
                                                  /home/tony/workdir/stm32h7xxcpplib/output/isrcommon.o
SystemD2Clock                                     /home/tony/workdir/stm32h7xxcpplib/output/system_stm32h7xx.o
SystemInit                                        /home/tony/workdir/stm32h7xxcpplib/output/system_stm32h7xx.o
                                                  /home/tony/workdir/stm32h7xxcpplib/output/startup_stm32h750xx.o
TAMP_STAMP_IRQHandler                             /home/tony/workdir/stm32h7xxcpplib/output/isrcommon.o
                                                  /home/tony/workdir/stm32h7xxcpplib/output/startup_stm32h750xx.o
TIM15_IRQHandler                                  /home/tony/workdir/stm32h7xxcpplib/output/isrcommon.o
                                                  /home/tony/workdir/stm32h7xxcpplib/output/startup_stm32h750xx.o
TIM16_IRQHandler                                  /home/tony/workdir/stm32h7xxcpplib/output/isrcommon.o
                                                  /home/tony/workdir/stm32h7xxcpplib/output/startup_stm32h750xx.o
TIM17_IRQHandler                                  /home/tony/workdir/stm32h7xxcpplib/output/isrcommon.o
                                                  /home/tony/workdir/stm32h7xxcpplib/output/startup_stm32h750xx.o
TIM1_BRK_IRQHandler                               /home/tony/workdir/stm32h7xxcpplib/output/isrcommon.o
                                                  /home/tony/workdir/stm32h7xxcpplib/output/startup_stm32h750xx.o
TIM1_CC_IRQHandler                                /home/tony/workdir/stm32h7xxcpplib/output/isrcommon.o
                                                  /home/tony/workdir/stm32h7xxcpplib/output/startup_stm32h750xx.o
TIM1_TRG_COM_IRQHandler                           /home/tony/workdir/stm32h7xxcpplib/output/isrcommon.o
                                                  /home/tony/workdir/stm32h7xxcpplib/output/startup_stm32h750xx.o
TIM1_UP_IRQHandler                                /home/tony/workdir/stm32h7xxcpplib/output/isrcommon.o
                                                  /home/tony/workdir/stm32h7xxcpplib/output/startup_stm32h750xx.o
TIM2_IRQHandler                                   /home/tony/workdir/stm32h7xxcpplib/output/isrcommon.o
                                                  /home/tony/workdir/stm32h7xxcpplib/output/startup_stm32h750xx.o
TIM3_IRQHandler                                   /home/tony/workdir/stm32h7xxcpplib/output/isrcommon.o
                                                  /home/tony/workdir/stm32h7xxcpplib/output/startup_stm32h750xx.o
TIM4_IRQHandler                                   /home/tony/workdir/stm32h7xxcpplib/output/isrcommon.o
                                                  /home/tony/workdir/stm32h7xxcpplib/output/startup_stm32h750xx.o
TIM5_IRQHandler                                   /home/tony/workdir/stm32h7xxcpplib/output/isrcommon.o
                                                  /home/tony/workdir/stm32h7xxcpplib/output/startup_stm32h750xx.o
TIM6_DAC_IRQHandler                               /home/tony/workdir/stm32h7xxcpplib/output/isrcommon.o
                                                  /home/tony/workdir/stm32h7xxcpplib/output/startup_stm32h750xx.o
TIM7_IRQHandler                                   /home/tony/workdir/stm32h7xxcpplib/output/isrcommon.o
                                                  /home/tony/workdir/stm32h7xxcpplib/output/startup_stm32h750xx.o
TIM8_BRK_TIM12_IRQHandler                         /home/tony/workdir/stm32h7xxcpplib/output/isrcommon.o
                                                  /home/tony/workdir/stm32h7xxcpplib/output/startup_stm32h750xx.o
TIM8_CC_IRQHandler                                /home/tony/workdir/stm32h7xxcpplib/output/isrcommon.o
                                                  /home/tony/workdir/stm32h7xxcpplib/output/startup_stm32h750xx.o
TIM8_TRG_COM_TIM14_IRQHandler                     /home/tony/workdir/stm32h7xxcpplib/output/isrcommon.o
                                                  /home/tony/workdir/stm32h7xxcpplib/output/startup_stm32h750xx.o
TIM8_UP_TIM13_IRQHandler                          /home/tony/workdir/stm32h7xxcpplib/output/isrcommon.o
                                                  /home/tony/workdir/stm32h7xxcpplib/output/startup_stm32h750xx.o
UART4_IRQHandler                                  /home/tony/workdir/stm32h7xxcpplib/output/isrcommon.o
                                                  /home/tony/workdir/stm32h7xxcpplib/output/startup_stm32h750xx.o
UART5_IRQHandler                                  /home/tony/workdir/stm32h7xxcpplib/output/isrcommon.o
                                                  /home/tony/workdir/stm32h7xxcpplib/output/startup_stm32h750xx.o
UART7_IRQHandler                                  /home/tony/workdir/stm32h7xxcpplib/output/isrcommon.o
                                                  /home/tony/workdir/stm32h7xxcpplib/output/startup_stm32h750xx.o
UART8_IRQHandler                                  /home/tony/workdir/stm32h7xxcpplib/output/isrcommon.o
                                                  /home/tony/workdir/stm32h7xxcpplib/output/startup_stm32h750xx.o
USART1_IRQHandler                                 /home/tony/workdir/stm32h7xxcpplib/output/isrcommon.o
                                                  /home/tony/workdir/stm32h7xxcpplib/output/startup_stm32h750xx.o
USART2_IRQHandler                                 /home/tony/workdir/stm32h7xxcpplib/output/isrcommon.o
                                                  /home/tony/workdir/stm32h7xxcpplib/output/startup_stm32h750xx.o
USART3_IRQHandler                                 /home/tony/workdir/stm32h7xxcpplib/output/isrcommon.o
                                                  /home/tony/workdir/stm32h7xxcpplib/output/startup_stm32h750xx.o
USART6_IRQHandler                                 /home/tony/workdir/stm32h7xxcpplib/output/isrcommon.o
                                                  /home/tony/workdir/stm32h7xxcpplib/output/startup_stm32h750xx.o
USART::USART(USART_TypeDef*, unsigned long, USARTMode, USARTWordLen, USARTStopBit, USARTParity, USARTHwCtrl) /home/tony/workdir/stm32h7xxcpplib/output/systeminit.o
USART::USART(USART_TypeDef*, unsigned long, USARTMode, USARTWordLen, USARTStopBit, USARTParity, USARTHwCtrl) /home/tony/workdir/stm32h7xxcpplib/output/systeminit.o
USART::init(unsigned long, unsigned long, USARTMode, USARTWordLen, USARTStopBit, USARTParity, USARTHwCtrl)::{lambda(USART_TypeDef*, void*)#1}::_FUN(USART_TypeDef*, void*) /home/tony/workdir/stm32h7xxcpplib/output/systeminit.o
USART::~USART()                                   /home/tony/workdir/stm32h7xxcpplib/output/systeminit.o
USART::~USART()                                   /home/tony/workdir/stm32h7xxcpplib/output/systeminit.o
UsageFault_Handler                                /home/tony/workdir/stm32h7xxcpplib/output/stm32h7xx_it.o
                                                  /home/tony/workdir/stm32h7xxcpplib/output/startup_stm32h750xx.o
WAKEUP_PIN_IRQHandler                             /home/tony/workdir/stm32h7xxcpplib/output/startup_stm32h750xx.o
WWDG_IRQHandler                                   /home/tony/workdir/stm32h7xxcpplib/output/isrcommon.o
                                                  /home/tony/workdir/stm32h7xxcpplib/output/startup_stm32h750xx.o
__aeabi_atexit                                    /opt/gcc-arm-none-eabi-10.3-2021.10/bin/../lib/gcc/arm-none-eabi/10.3.1/../../../../arm-none-eabi/lib/thumb/v7e-m+fp/hard/libc_nano.a(lib_a-aeabi_atexit.o)
                                                  /home/tony/workdir/stm32h7xxcpplib/output/systeminit.o
                                                  /home/tony/workdir/stm32h7xxcpplib/output/mtimer.o
                                                  /home/tony/workdir/stm32h7xxcpplib/output/mthread.o
                                                  /home/tony/workdir/stm32h7xxcpplib/output/mscheduler.o
                                                  /home/tony/workdir/stm32h7xxcpplib/output/mobject.o
                                                  /home/tony/workdir/stm32h7xxcpplib/output/mmem.o
                                                  /home/tony/workdir/stm32h7xxcpplib/output/mipc.o
                                                  /home/tony/workdir/stm32h7xxcpplib/output/midle.o
                                                  /home/tony/workdir/stm32h7xxcpplib/output/mcomponents.o
                                                  /home/tony/workdir/stm32h7xxcpplib/output/mclock.o
                                                  /home/tony/workdir/stm32h7xxcpplib/output/board.o
                                                  /home/tony/workdir/stm32h7xxcpplib/output/main.o
__bss_end__                                       /opt/gcc-arm-none-eabi-10.3-2021.10/bin/../lib/gcc/arm-none-eabi/10.3.1/../../../../arm-none-eabi/lib/thumb/v7e-m+fp/hard/crt0.o
__bss_start__                                     /opt/gcc-arm-none-eabi-10.3-2021.10/bin/../lib/gcc/arm-none-eabi/10.3.1/../../../../arm-none-eabi/lib/thumb/v7e-m+fp/hard/crt0.o
__call_exitprocs                                  /opt/gcc-arm-none-eabi-10.3-2021.10/bin/../lib/gcc/arm-none-eabi/10.3.1/../../../../arm-none-eabi/lib/thumb/v7e-m+fp/hard/libc_nano.a(lib_a-exit.o)
__cxa_atexit                                      /opt/gcc-arm-none-eabi-10.3-2021.10/bin/../lib/gcc/arm-none-eabi/10.3.1/../../../../arm-none-eabi/lib/thumb/v7e-m+fp/hard/libc_nano.a(lib_a-cxa_atexit.o)
                                                  /opt/gcc-arm-none-eabi-10.3-2021.10/bin/../lib/gcc/arm-none-eabi/10.3.1/../../../../arm-none-eabi/lib/thumb/v7e-m+fp/hard/libc_nano.a(lib_a-aeabi_atexit.o)
__cxa_atexit_dummy                                /opt/gcc-arm-none-eabi-10.3-2021.10/bin/../lib/gcc/arm-none-eabi/10.3.1/../../../../arm-none-eabi/lib/thumb/v7e-m+fp/hard/libc_nano.a(lib_a-cxa_atexit.o)
__cxa_guard_abort                                 /opt/gcc-arm-none-eabi-10.3-2021.10/bin/../lib/gcc/arm-none-eabi/10.3.1/../../../../arm-none-eabi/lib/thumb/v7e-m+fp/hard/libstdc++_nano.a(guard.o)
__cxa_guard_acquire                               /opt/gcc-arm-none-eabi-10.3-2021.10/bin/../lib/gcc/arm-none-eabi/10.3.1/../../../../arm-none-eabi/lib/thumb/v7e-m+fp/hard/libstdc++_nano.a(guard.o)
                                                  /home/tony/workdir/stm32h7xxcpplib/output/systeminit.o
                                                  /home/tony/workdir/stm32h7xxcpplib/output/mtimer.o
                                                  /home/tony/workdir/stm32h7xxcpplib/output/mthread.o
                                                  /home/tony/workdir/stm32h7xxcpplib/output/mscheduler.o
                                                  /home/tony/workdir/stm32h7xxcpplib/output/mobject.o
                                                  /home/tony/workdir/stm32h7xxcpplib/output/mmem.o
                                                  /home/tony/workdir/stm32h7xxcpplib/output/mipc.o
                                                  /home/tony/workdir/stm32h7xxcpplib/output/midle.o
                                                  /home/tony/workdir/stm32h7xxcpplib/output/mcomponents.o
                                                  /home/tony/workdir/stm32h7xxcpplib/output/mclock.o
                                                  /home/tony/workdir/stm32h7xxcpplib/output/board.o
                                                  /home/tony/workdir/stm32h7xxcpplib/output/main.o
__cxa_guard_release                               /opt/gcc-arm-none-eabi-10.3-2021.10/bin/../lib/gcc/arm-none-eabi/10.3.1/../../../../arm-none-eabi/lib/thumb/v7e-m+fp/hard/libstdc++_nano.a(guard.o)
                                                  /home/tony/workdir/stm32h7xxcpplib/output/systeminit.o
                                                  /home/tony/workdir/stm32h7xxcpplib/output/mtimer.o
                                                  /home/tony/workdir/stm32h7xxcpplib/output/mthread.o
                                                  /home/tony/workdir/stm32h7xxcpplib/output/mscheduler.o
                                                  /home/tony/workdir/stm32h7xxcpplib/output/mobject.o
                                                  /home/tony/workdir/stm32h7xxcpplib/output/mmem.o
                                                  /home/tony/workdir/stm32h7xxcpplib/output/mipc.o
                                                  /home/tony/workdir/stm32h7xxcpplib/output/midle.o
                                                  /home/tony/workdir/stm32h7xxcpplib/output/mcomponents.o
                                                  /home/tony/workdir/stm32h7xxcpplib/output/mclock.o
                                                  /home/tony/workdir/stm32h7xxcpplib/output/board.o
                                                  /home/tony/workdir/stm32h7xxcpplib/output/main.o
__deregister_frame_info                           /opt/gcc-arm-none-eabi-10.3-2021.10/bin/../lib/gcc/arm-none-eabi/10.3.1/thumb/v7e-m+fp/hard/crtbegin.o
__dso_handle                                      /opt/gcc-arm-none-eabi-10.3-2021.10/bin/../lib/gcc/arm-none-eabi/10.3.1/thumb/v7e-m+fp/hard/crtbegin.o
                                                  /home/tony/workdir/stm32h7xxcpplib/output/systeminit.o
                                                  /home/tony/workdir/stm32h7xxcpplib/output/mtimer.o
                                                  /home/tony/workdir/stm32h7xxcpplib/output/mthread.o
                                                  /home/tony/workdir/stm32h7xxcpplib/output/mscheduler.o
                                                  /home/tony/workdir/stm32h7xxcpplib/output/mobject.o
                                                  /home/tony/workdir/stm32h7xxcpplib/output/mmem.o
                                                  /home/tony/workdir/stm32h7xxcpplib/output/mipc.o
                                                  /home/tony/workdir/stm32h7xxcpplib/output/midle.o
                                                  /home/tony/workdir/stm32h7xxcpplib/output/mcomponents.o
                                                  /home/tony/workdir/stm32h7xxcpplib/output/mclock.o
                                                  /home/tony/workdir/stm32h7xxcpplib/output/board.o
                                                  /home/tony/workdir/stm32h7xxcpplib/output/main.o
__fp_lock_all                                     /opt/gcc-arm-none-eabi-10.3-2021.10/bin/../lib/gcc/arm-none-eabi/10.3.1/../../../../arm-none-eabi/lib/thumb/v7e-m+fp/hard/libc_nano.a(lib_a-findfp.o)
__fp_unlock_all                                   /opt/gcc-arm-none-eabi-10.3-2021.10/bin/../lib/gcc/arm-none-eabi/10.3.1/../../../../arm-none-eabi/lib/thumb/v7e-m+fp/hard/libc_nano.a(lib_a-findfp.o)
__init_array_end                                  /opt/gcc-arm-none-eabi-10.3-2021.10/bin/../lib/gcc/arm-none-eabi/10.3.1/../../../../arm-none-eabi/lib/thumb/v7e-m+fp/hard/libc_nano.a(lib_a-init.o)
__init_array_start                                /opt/gcc-arm-none-eabi-10.3-2021.10/bin/../lib/gcc/arm-none-eabi/10.3.1/../../../../arm-none-eabi/lib/thumb/v7e-m+fp/hard/libc_nano.a(lib_a-init.o)
__libc_fini_array                                 /opt/gcc-arm-none-eabi-10.3-2021.10/bin/../lib/gcc/arm-none-eabi/10.3.1/../../../../arm-none-eabi/lib/thumb/v7e-m+fp/hard/crt0.o
__libc_init_array                                 /opt/gcc-arm-none-eabi-10.3-2021.10/bin/../lib/gcc/arm-none-eabi/10.3.1/../../../../arm-none-eabi/lib/thumb/v7e-m+fp/hard/libc_nano.a(lib_a-init.o)
                                                  /home/tony/workdir/stm32h7xxcpplib/output/startup_stm32h750xx.o
                                                  /opt/gcc-arm-none-eabi-10.3-2021.10/bin/../lib/gcc/arm-none-eabi/10.3.1/../../../../arm-none-eabi/lib/thumb/v7e-m+fp/hard/crt0.o
__lock___arc4random_mutex                         /opt/gcc-arm-none-eabi-10.3-2021.10/bin/../lib/gcc/arm-none-eabi/10.3.1/../../../../arm-none-eabi/lib/thumb/v7e-m+fp/hard/libc_nano.a(lib_a-lock.o)
__lock___at_quick_exit_mutex                      /opt/gcc-arm-none-eabi-10.3-2021.10/bin/../lib/gcc/arm-none-eabi/10.3.1/../../../../arm-none-eabi/lib/thumb/v7e-m+fp/hard/libc_nano.a(lib_a-lock.o)
__lock___atexit_recursive_mutex                   /opt/gcc-arm-none-eabi-10.3-2021.10/bin/../lib/gcc/arm-none-eabi/10.3.1/../../../../arm-none-eabi/lib/thumb/v7e-m+fp/hard/libc_nano.a(lib_a-lock.o)
__lock___dd_hash_mutex                            /opt/gcc-arm-none-eabi-10.3-2021.10/bin/../lib/gcc/arm-none-eabi/10.3.1/../../../../arm-none-eabi/lib/thumb/v7e-m+fp/hard/libc_nano.a(lib_a-lock.o)
__lock___env_recursive_mutex                      /opt/gcc-arm-none-eabi-10.3-2021.10/bin/../lib/gcc/arm-none-eabi/10.3.1/../../../../arm-none-eabi/lib/thumb/v7e-m+fp/hard/libc_nano.a(lib_a-lock.o)
__lock___malloc_recursive_mutex                   /opt/gcc-arm-none-eabi-10.3-2021.10/bin/../lib/gcc/arm-none-eabi/10.3.1/../../../../arm-none-eabi/lib/thumb/v7e-m+fp/hard/libc_nano.a(lib_a-lock.o)
                                                  /opt/gcc-arm-none-eabi-10.3-2021.10/bin/../lib/gcc/arm-none-eabi/10.3.1/../../../../arm-none-eabi/lib/thumb/v7e-m+fp/hard/libc_nano.a(lib_a-mlock.o)
__lock___sfp_recursive_mutex                      /opt/gcc-arm-none-eabi-10.3-2021.10/bin/../lib/gcc/arm-none-eabi/10.3.1/../../../../arm-none-eabi/lib/thumb/v7e-m+fp/hard/libc_nano.a(lib_a-lock.o)
                                                  /opt/gcc-arm-none-eabi-10.3-2021.10/bin/../lib/gcc/arm-none-eabi/10.3.1/../../../../arm-none-eabi/lib/thumb/v7e-m+fp/hard/libc_nano.a(lib_a-findfp.o)
__lock___sinit_recursive_mutex                    /opt/gcc-arm-none-eabi-10.3-2021.10/bin/../lib/gcc/arm-none-eabi/10.3.1/../../../../arm-none-eabi/lib/thumb/v7e-m+fp/hard/libc_nano.a(lib_a-lock.o)
                                                  /opt/gcc-arm-none-eabi-10.3-2021.10/bin/../lib/gcc/arm-none-eabi/10.3.1/../../../../arm-none-eabi/lib/thumb/v7e-m+fp/hard/libc_nano.a(lib_a-findfp.o)
__lock___tz_mutex                                 /opt/gcc-arm-none-eabi-10.3-2021.10/bin/../lib/gcc/arm-none-eabi/10.3.1/../../../../arm-none-eabi/lib/thumb/v7e-m+fp/hard/libc_nano.a(lib_a-lock.o)
__malloc_free_list                                /opt/gcc-arm-none-eabi-10.3-2021.10/bin/../lib/gcc/arm-none-eabi/10.3.1/../../../../arm-none-eabi/lib/thumb/v7e-m+fp/hard/libc_nano.a(lib_a-nano-mallocr.o)
                                                  /opt/gcc-arm-none-eabi-10.3-2021.10/bin/../lib/gcc/arm-none-eabi/10.3.1/../../../../arm-none-eabi/lib/thumb/v7e-m+fp/hard/libc_nano.a(lib_a-nano-freer.o)
__malloc_lock                                     /opt/gcc-arm-none-eabi-10.3-2021.10/bin/../lib/gcc/arm-none-eabi/10.3.1/../../../../arm-none-eabi/lib/thumb/v7e-m+fp/hard/libc_nano.a(lib_a-mlock.o)
                                                  /opt/gcc-arm-none-eabi-10.3-2021.10/bin/../lib/gcc/arm-none-eabi/10.3.1/../../../../arm-none-eabi/lib/thumb/v7e-m+fp/hard/libc_nano.a(lib_a-nano-freer.o)
                                                  /opt/gcc-arm-none-eabi-10.3-2021.10/bin/../lib/gcc/arm-none-eabi/10.3.1/../../../../arm-none-eabi/lib/thumb/v7e-m+fp/hard/libc_nano.a(lib_a-nano-mallocr.o)
__malloc_sbrk_start                               /opt/gcc-arm-none-eabi-10.3-2021.10/bin/../lib/gcc/arm-none-eabi/10.3.1/../../../../arm-none-eabi/lib/thumb/v7e-m+fp/hard/libc_nano.a(lib_a-nano-mallocr.o)
__malloc_unlock                                   /opt/gcc-arm-none-eabi-10.3-2021.10/bin/../lib/gcc/arm-none-eabi/10.3.1/../../../../arm-none-eabi/lib/thumb/v7e-m+fp/hard/libc_nano.a(lib_a-mlock.o)
                                                  /opt/gcc-arm-none-eabi-10.3-2021.10/bin/../lib/gcc/arm-none-eabi/10.3.1/../../../../arm-none-eabi/lib/thumb/v7e-m+fp/hard/libc_nano.a(lib_a-nano-freer.o)
                                                  /opt/gcc-arm-none-eabi-10.3-2021.10/bin/../lib/gcc/arm-none-eabi/10.3.1/../../../../arm-none-eabi/lib/thumb/v7e-m+fp/hard/libc_nano.a(lib_a-nano-mallocr.o)
__on_exit_args                                    /opt/gcc-arm-none-eabi-10.3-2021.10/bin/../lib/gcc/arm-none-eabi/10.3.1/../../../../arm-none-eabi/lib/thumb/v7e-m+fp/hard/libc_nano.a(lib_a-on_exit_args.o)
                                                  /opt/gcc-arm-none-eabi-10.3-2021.10/bin/../lib/gcc/arm-none-eabi/10.3.1/../../../../arm-none-eabi/lib/thumb/v7e-m+fp/hard/libc_nano.a(lib_a-cxa_atexit.o)
__preinit_array_end                               /opt/gcc-arm-none-eabi-10.3-2021.10/bin/../lib/gcc/arm-none-eabi/10.3.1/../../../../arm-none-eabi/lib/thumb/v7e-m+fp/hard/libc_nano.a(lib_a-init.o)
__preinit_array_start                             /opt/gcc-arm-none-eabi-10.3-2021.10/bin/../lib/gcc/arm-none-eabi/10.3.1/../../../../arm-none-eabi/lib/thumb/v7e-m+fp/hard/libc_nano.a(lib_a-init.o)
__register_exitproc                               /opt/gcc-arm-none-eabi-10.3-2021.10/bin/../lib/gcc/arm-none-eabi/10.3.1/../../../../arm-none-eabi/lib/thumb/v7e-m+fp/hard/libc_nano.a(lib_a-cxa_atexit.o)
__register_frame_info                             /opt/gcc-arm-none-eabi-10.3-2021.10/bin/../lib/gcc/arm-none-eabi/10.3.1/thumb/v7e-m+fp/hard/crtbegin.o
__retarget_lock_acquire                           /opt/gcc-arm-none-eabi-10.3-2021.10/bin/../lib/gcc/arm-none-eabi/10.3.1/../../../../arm-none-eabi/lib/thumb/v7e-m+fp/hard/libc_nano.a(lib_a-lock.o)
__retarget_lock_acquire_recursive                 /opt/gcc-arm-none-eabi-10.3-2021.10/bin/../lib/gcc/arm-none-eabi/10.3.1/../../../../arm-none-eabi/lib/thumb/v7e-m+fp/hard/libc_nano.a(lib_a-lock.o)
                                                  /opt/gcc-arm-none-eabi-10.3-2021.10/bin/../lib/gcc/arm-none-eabi/10.3.1/../../../../arm-none-eabi/lib/thumb/v7e-m+fp/hard/libc_nano.a(lib_a-mlock.o)
                                                  /opt/gcc-arm-none-eabi-10.3-2021.10/bin/../lib/gcc/arm-none-eabi/10.3.1/../../../../arm-none-eabi/lib/thumb/v7e-m+fp/hard/libc_nano.a(lib_a-fflush.o)
                                                  /opt/gcc-arm-none-eabi-10.3-2021.10/bin/../lib/gcc/arm-none-eabi/10.3.1/../../../../arm-none-eabi/lib/thumb/v7e-m+fp/hard/libc_nano.a(lib_a-nano-vfprintf.o)
                                                  /opt/gcc-arm-none-eabi-10.3-2021.10/bin/../lib/gcc/arm-none-eabi/10.3.1/../../../../arm-none-eabi/lib/thumb/v7e-m+fp/hard/libc_nano.a(lib_a-findfp.o)
__retarget_lock_close                             /opt/gcc-arm-none-eabi-10.3-2021.10/bin/../lib/gcc/arm-none-eabi/10.3.1/../../../../arm-none-eabi/lib/thumb/v7e-m+fp/hard/libc_nano.a(lib_a-lock.o)
__retarget_lock_close_recursive                   /opt/gcc-arm-none-eabi-10.3-2021.10/bin/../lib/gcc/arm-none-eabi/10.3.1/../../../../arm-none-eabi/lib/thumb/v7e-m+fp/hard/libc_nano.a(lib_a-lock.o)
__retarget_lock_init                              /opt/gcc-arm-none-eabi-10.3-2021.10/bin/../lib/gcc/arm-none-eabi/10.3.1/../../../../arm-none-eabi/lib/thumb/v7e-m+fp/hard/libc_nano.a(lib_a-lock.o)
__retarget_lock_init_recursive                    /opt/gcc-arm-none-eabi-10.3-2021.10/bin/../lib/gcc/arm-none-eabi/10.3.1/../../../../arm-none-eabi/lib/thumb/v7e-m+fp/hard/libc_nano.a(lib_a-lock.o)
                                                  /opt/gcc-arm-none-eabi-10.3-2021.10/bin/../lib/gcc/arm-none-eabi/10.3.1/../../../../arm-none-eabi/lib/thumb/v7e-m+fp/hard/libc_nano.a(lib_a-findfp.o)
__retarget_lock_release                           /opt/gcc-arm-none-eabi-10.3-2021.10/bin/../lib/gcc/arm-none-eabi/10.3.1/../../../../arm-none-eabi/lib/thumb/v7e-m+fp/hard/libc_nano.a(lib_a-lock.o)
__retarget_lock_release_recursive                 /opt/gcc-arm-none-eabi-10.3-2021.10/bin/../lib/gcc/arm-none-eabi/10.3.1/../../../../arm-none-eabi/lib/thumb/v7e-m+fp/hard/libc_nano.a(lib_a-lock.o)
                                                  /opt/gcc-arm-none-eabi-10.3-2021.10/bin/../lib/gcc/arm-none-eabi/10.3.1/../../../../arm-none-eabi/lib/thumb/v7e-m+fp/hard/libc_nano.a(lib_a-mlock.o)
                                                  /opt/gcc-arm-none-eabi-10.3-2021.10/bin/../lib/gcc/arm-none-eabi/10.3.1/../../../../arm-none-eabi/lib/thumb/v7e-m+fp/hard/libc_nano.a(lib_a-fflush.o)
                                                  /opt/gcc-arm-none-eabi-10.3-2021.10/bin/../lib/gcc/arm-none-eabi/10.3.1/../../../../arm-none-eabi/lib/thumb/v7e-m+fp/hard/libc_nano.a(lib_a-nano-vfprintf.o)
                                                  /opt/gcc-arm-none-eabi-10.3-2021.10/bin/../lib/gcc/arm-none-eabi/10.3.1/../../../../arm-none-eabi/lib/thumb/v7e-m+fp/hard/libc_nano.a(lib_a-findfp.o)
__retarget_lock_try_acquire                       /opt/gcc-arm-none-eabi-10.3-2021.10/bin/../lib/gcc/arm-none-eabi/10.3.1/../../../../arm-none-eabi/lib/thumb/v7e-m+fp/hard/libc_nano.a(lib_a-lock.o)
__retarget_lock_try_acquire_recursive             /opt/gcc-arm-none-eabi-10.3-2021.10/bin/../lib/gcc/arm-none-eabi/10.3.1/../../../../arm-none-eabi/lib/thumb/v7e-m+fp/hard/libc_nano.a(lib_a-lock.o)
__sclose                                          /opt/gcc-arm-none-eabi-10.3-2021.10/bin/../lib/gcc/arm-none-eabi/10.3.1/../../../../arm-none-eabi/lib/thumb/v7e-m+fp/hard/libc_nano.a(lib_a-stdio.o)
                                                  /opt/gcc-arm-none-eabi-10.3-2021.10/bin/../lib/gcc/arm-none-eabi/10.3.1/../../../../arm-none-eabi/lib/thumb/v7e-m+fp/hard/libc_nano.a(lib_a-findfp.o)
__seofread                                        /opt/gcc-arm-none-eabi-10.3-2021.10/bin/../lib/gcc/arm-none-eabi/10.3.1/../../../../arm-none-eabi/lib/thumb/v7e-m+fp/hard/libc_nano.a(lib_a-stdio.o)
__sf_fake_stderr                                  /opt/gcc-arm-none-eabi-10.3-2021.10/bin/../lib/gcc/arm-none-eabi/10.3.1/../../../../arm-none-eabi/lib/thumb/v7e-m+fp/hard/libc_nano.a(lib_a-findfp.o)
                                                  /opt/gcc-arm-none-eabi-10.3-2021.10/bin/../lib/gcc/arm-none-eabi/10.3.1/../../../../arm-none-eabi/lib/thumb/v7e-m+fp/hard/libc_nano.a(lib_a-fflush.o)
                                                  /opt/gcc-arm-none-eabi-10.3-2021.10/bin/../lib/gcc/arm-none-eabi/10.3.1/../../../../arm-none-eabi/lib/thumb/v7e-m+fp/hard/libc_nano.a(lib_a-wsetup.o)
                                                  /opt/gcc-arm-none-eabi-10.3-2021.10/bin/../lib/gcc/arm-none-eabi/10.3.1/../../../../arm-none-eabi/lib/thumb/v7e-m+fp/hard/libc_nano.a(lib_a-wbuf.o)
                                                  /opt/gcc-arm-none-eabi-10.3-2021.10/bin/../lib/gcc/arm-none-eabi/10.3.1/../../../../arm-none-eabi/lib/thumb/v7e-m+fp/hard/libc_nano.a(lib_a-nano-vfprintf.o)
                                                  /opt/gcc-arm-none-eabi-10.3-2021.10/bin/../lib/gcc/arm-none-eabi/10.3.1/../../../../arm-none-eabi/lib/thumb/v7e-m+fp/hard/libc_nano.a(lib_a-impure.o)
__sf_fake_stdin                                   /opt/gcc-arm-none-eabi-10.3-2021.10/bin/../lib/gcc/arm-none-eabi/10.3.1/../../../../arm-none-eabi/lib/thumb/v7e-m+fp/hard/libc_nano.a(lib_a-findfp.o)
                                                  /opt/gcc-arm-none-eabi-10.3-2021.10/bin/../lib/gcc/arm-none-eabi/10.3.1/../../../../arm-none-eabi/lib/thumb/v7e-m+fp/hard/libc_nano.a(lib_a-fflush.o)
                                                  /opt/gcc-arm-none-eabi-10.3-2021.10/bin/../lib/gcc/arm-none-eabi/10.3.1/../../../../arm-none-eabi/lib/thumb/v7e-m+fp/hard/libc_nano.a(lib_a-wsetup.o)
                                                  /opt/gcc-arm-none-eabi-10.3-2021.10/bin/../lib/gcc/arm-none-eabi/10.3.1/../../../../arm-none-eabi/lib/thumb/v7e-m+fp/hard/libc_nano.a(lib_a-wbuf.o)
                                                  /opt/gcc-arm-none-eabi-10.3-2021.10/bin/../lib/gcc/arm-none-eabi/10.3.1/../../../../arm-none-eabi/lib/thumb/v7e-m+fp/hard/libc_nano.a(lib_a-nano-vfprintf.o)
                                                  /opt/gcc-arm-none-eabi-10.3-2021.10/bin/../lib/gcc/arm-none-eabi/10.3.1/../../../../arm-none-eabi/lib/thumb/v7e-m+fp/hard/libc_nano.a(lib_a-impure.o)
__sf_fake_stdout                                  /opt/gcc-arm-none-eabi-10.3-2021.10/bin/../lib/gcc/arm-none-eabi/10.3.1/../../../../arm-none-eabi/lib/thumb/v7e-m+fp/hard/libc_nano.a(lib_a-findfp.o)
                                                  /opt/gcc-arm-none-eabi-10.3-2021.10/bin/../lib/gcc/arm-none-eabi/10.3.1/../../../../arm-none-eabi/lib/thumb/v7e-m+fp/hard/libc_nano.a(lib_a-fflush.o)
                                                  /opt/gcc-arm-none-eabi-10.3-2021.10/bin/../lib/gcc/arm-none-eabi/10.3.1/../../../../arm-none-eabi/lib/thumb/v7e-m+fp/hard/libc_nano.a(lib_a-wsetup.o)
                                                  /opt/gcc-arm-none-eabi-10.3-2021.10/bin/../lib/gcc/arm-none-eabi/10.3.1/../../../../arm-none-eabi/lib/thumb/v7e-m+fp/hard/libc_nano.a(lib_a-wbuf.o)
                                                  /opt/gcc-arm-none-eabi-10.3-2021.10/bin/../lib/gcc/arm-none-eabi/10.3.1/../../../../arm-none-eabi/lib/thumb/v7e-m+fp/hard/libc_nano.a(lib_a-nano-vfprintf.o)
                                                  /opt/gcc-arm-none-eabi-10.3-2021.10/bin/../lib/gcc/arm-none-eabi/10.3.1/../../../../arm-none-eabi/lib/thumb/v7e-m+fp/hard/libc_nano.a(lib_a-impure.o)
__sflush_r                                        /opt/gcc-arm-none-eabi-10.3-2021.10/bin/../lib/gcc/arm-none-eabi/10.3.1/../../../../arm-none-eabi/lib/thumb/v7e-m+fp/hard/libc_nano.a(lib_a-fflush.o)
__sfmoreglue                                      /opt/gcc-arm-none-eabi-10.3-2021.10/bin/../lib/gcc/arm-none-eabi/10.3.1/../../../../arm-none-eabi/lib/thumb/v7e-m+fp/hard/libc_nano.a(lib_a-findfp.o)
__sfp                                             /opt/gcc-arm-none-eabi-10.3-2021.10/bin/../lib/gcc/arm-none-eabi/10.3.1/../../../../arm-none-eabi/lib/thumb/v7e-m+fp/hard/libc_nano.a(lib_a-findfp.o)
__sfp_lock_acquire                                /opt/gcc-arm-none-eabi-10.3-2021.10/bin/../lib/gcc/arm-none-eabi/10.3.1/../../../../arm-none-eabi/lib/thumb/v7e-m+fp/hard/libc_nano.a(lib_a-findfp.o)
__sfp_lock_release                                /opt/gcc-arm-none-eabi-10.3-2021.10/bin/../lib/gcc/arm-none-eabi/10.3.1/../../../../arm-none-eabi/lib/thumb/v7e-m+fp/hard/libc_nano.a(lib_a-findfp.o)
__sfputs_r                                        /opt/gcc-arm-none-eabi-10.3-2021.10/bin/../lib/gcc/arm-none-eabi/10.3.1/../../../../arm-none-eabi/lib/thumb/v7e-m+fp/hard/libc_nano.a(lib_a-nano-vfprintf.o)
__sfvwrite_r                                      /opt/gcc-arm-none-eabi-10.3-2021.10/bin/../lib/gcc/arm-none-eabi/10.3.1/../../../../arm-none-eabi/lib/thumb/v7e-m+fp/hard/libc_nano.a(lib_a-fvwrite.o)
                                                  /opt/gcc-arm-none-eabi-10.3-2021.10/bin/../lib/gcc/arm-none-eabi/10.3.1/../../../../arm-none-eabi/lib/thumb/v7e-m+fp/hard/libc_nano.a(lib_a-nano-vfprintf.o)
__sinit                                           /opt/gcc-arm-none-eabi-10.3-2021.10/bin/../lib/gcc/arm-none-eabi/10.3.1/../../../../arm-none-eabi/lib/thumb/v7e-m+fp/hard/libc_nano.a(lib_a-findfp.o)
                                                  /opt/gcc-arm-none-eabi-10.3-2021.10/bin/../lib/gcc/arm-none-eabi/10.3.1/../../../../arm-none-eabi/lib/thumb/v7e-m+fp/hard/libc_nano.a(lib_a-fflush.o)
                                                  /opt/gcc-arm-none-eabi-10.3-2021.10/bin/../lib/gcc/arm-none-eabi/10.3.1/../../../../arm-none-eabi/lib/thumb/v7e-m+fp/hard/libc_nano.a(lib_a-wsetup.o)
                                                  /opt/gcc-arm-none-eabi-10.3-2021.10/bin/../lib/gcc/arm-none-eabi/10.3.1/../../../../arm-none-eabi/lib/thumb/v7e-m+fp/hard/libc_nano.a(lib_a-wbuf.o)
                                                  /opt/gcc-arm-none-eabi-10.3-2021.10/bin/../lib/gcc/arm-none-eabi/10.3.1/../../../../arm-none-eabi/lib/thumb/v7e-m+fp/hard/libc_nano.a(lib_a-nano-vfprintf.o)
                                                  /opt/gcc-arm-none-eabi-10.3-2021.10/bin/../lib/gcc/arm-none-eabi/10.3.1/../../../../arm-none-eabi/lib/thumb/v7e-m+fp/hard/libc_nano.a(lib_a-printf.o)
__sinit_lock_acquire                              /opt/gcc-arm-none-eabi-10.3-2021.10/bin/../lib/gcc/arm-none-eabi/10.3.1/../../../../arm-none-eabi/lib/thumb/v7e-m+fp/hard/libc_nano.a(lib_a-findfp.o)
__sinit_lock_release                              /opt/gcc-arm-none-eabi-10.3-2021.10/bin/../lib/gcc/arm-none-eabi/10.3.1/../../../../arm-none-eabi/lib/thumb/v7e-m+fp/hard/libc_nano.a(lib_a-findfp.o)
__smakebuf_r                                      /opt/gcc-arm-none-eabi-10.3-2021.10/bin/../lib/gcc/arm-none-eabi/10.3.1/../../../../arm-none-eabi/lib/thumb/v7e-m+fp/hard/libc_nano.a(lib_a-makebuf.o)
                                                  /opt/gcc-arm-none-eabi-10.3-2021.10/bin/../lib/gcc/arm-none-eabi/10.3.1/../../../../arm-none-eabi/lib/thumb/v7e-m+fp/hard/libc_nano.a(lib_a-wsetup.o)
__sprint_r                                        /opt/gcc-arm-none-eabi-10.3-2021.10/bin/../lib/gcc/arm-none-eabi/10.3.1/../../../../arm-none-eabi/lib/thumb/v7e-m+fp/hard/libc_nano.a(lib_a-nano-vfprintf.o)
__sread                                           /opt/gcc-arm-none-eabi-10.3-2021.10/bin/../lib/gcc/arm-none-eabi/10.3.1/../../../../arm-none-eabi/lib/thumb/v7e-m+fp/hard/libc_nano.a(lib_a-stdio.o)
                                                  /opt/gcc-arm-none-eabi-10.3-2021.10/bin/../lib/gcc/arm-none-eabi/10.3.1/../../../../arm-none-eabi/lib/thumb/v7e-m+fp/hard/libc_nano.a(lib_a-findfp.o)
__sseek                                           /opt/gcc-arm-none-eabi-10.3-2021.10/bin/../lib/gcc/arm-none-eabi/10.3.1/../../../../arm-none-eabi/lib/thumb/v7e-m+fp/hard/libc_nano.a(lib_a-stdio.o)
                                                  /opt/gcc-arm-none-eabi-10.3-2021.10/bin/../lib/gcc/arm-none-eabi/10.3.1/../../../../arm-none-eabi/lib/thumb/v7e-m+fp/hard/libc_nano.a(lib_a-findfp.o)
__stack                                           /opt/gcc-arm-none-eabi-10.3-2021.10/bin/../lib/gcc/arm-none-eabi/10.3.1/../../../../arm-none-eabi/lib/thumb/v7e-m+fp/hard/crt0.o
__swbuf                                           /opt/gcc-arm-none-eabi-10.3-2021.10/bin/../lib/gcc/arm-none-eabi/10.3.1/../../../../arm-none-eabi/lib/thumb/v7e-m+fp/hard/libc_nano.a(lib_a-wbuf.o)
__swbuf_r                                         /opt/gcc-arm-none-eabi-10.3-2021.10/bin/../lib/gcc/arm-none-eabi/10.3.1/../../../../arm-none-eabi/lib/thumb/v7e-m+fp/hard/libc_nano.a(lib_a-wbuf.o)
                                                  /opt/gcc-arm-none-eabi-10.3-2021.10/bin/../lib/gcc/arm-none-eabi/10.3.1/../../../../arm-none-eabi/lib/thumb/v7e-m+fp/hard/libc_nano.a(lib_a-nano-vfprintf.o)
__swhatbuf_r                                      /opt/gcc-arm-none-eabi-10.3-2021.10/bin/../lib/gcc/arm-none-eabi/10.3.1/../../../../arm-none-eabi/lib/thumb/v7e-m+fp/hard/libc_nano.a(lib_a-makebuf.o)
__swrite                                          /opt/gcc-arm-none-eabi-10.3-2021.10/bin/../lib/gcc/arm-none-eabi/10.3.1/../../../../arm-none-eabi/lib/thumb/v7e-m+fp/hard/libc_nano.a(lib_a-stdio.o)
                                                  /opt/gcc-arm-none-eabi-10.3-2021.10/bin/../lib/gcc/arm-none-eabi/10.3.1/../../../../arm-none-eabi/lib/thumb/v7e-m+fp/hard/libc_nano.a(lib_a-findfp.o)
__swsetup_r                                       /opt/gcc-arm-none-eabi-10.3-2021.10/bin/../lib/gcc/arm-none-eabi/10.3.1/../../../../arm-none-eabi/lib/thumb/v7e-m+fp/hard/libc_nano.a(lib_a-wsetup.o)
                                                  /opt/gcc-arm-none-eabi-10.3-2021.10/bin/../lib/gcc/arm-none-eabi/10.3.1/../../../../arm-none-eabi/lib/thumb/v7e-m+fp/hard/libc_nano.a(lib_a-fvwrite.o)
                                                  /opt/gcc-arm-none-eabi-10.3-2021.10/bin/../lib/gcc/arm-none-eabi/10.3.1/../../../../arm-none-eabi/lib/thumb/v7e-m+fp/hard/libc_nano.a(lib_a-wbuf.o)
                                                  /opt/gcc-arm-none-eabi-10.3-2021.10/bin/../lib/gcc/arm-none-eabi/10.3.1/../../../../arm-none-eabi/lib/thumb/v7e-m+fp/hard/libc_nano.a(lib_a-nano-vfprintf.o)
_cleanup                                          /opt/gcc-arm-none-eabi-10.3-2021.10/bin/../lib/gcc/arm-none-eabi/10.3.1/../../../../arm-none-eabi/lib/thumb/v7e-m+fp/hard/libc_nano.a(lib_a-findfp.o)
_cleanup_r                                        /opt/gcc-arm-none-eabi-10.3-2021.10/bin/../lib/gcc/arm-none-eabi/10.3.1/../../../../arm-none-eabi/lib/thumb/v7e-m+fp/hard/libc_nano.a(lib_a-findfp.o)
                                                  /opt/gcc-arm-none-eabi-10.3-2021.10/bin/../lib/gcc/arm-none-eabi/10.3.1/../../../../arm-none-eabi/lib/thumb/v7e-m+fp/hard/libc_nano.a(lib_a-makebuf.o)
_close                                            /opt/gcc-arm-none-eabi-10.3-2021.10/bin/../lib/gcc/arm-none-eabi/10.3.1/../../../../arm-none-eabi/lib/thumb/v7e-m+fp/hard/libnosys.a(close.o)
                                                  /opt/gcc-arm-none-eabi-10.3-2021.10/bin/../lib/gcc/arm-none-eabi/10.3.1/../../../../arm-none-eabi/lib/thumb/v7e-m+fp/hard/libc_nano.a(lib_a-closer.o)
_close_r                                          /opt/gcc-arm-none-eabi-10.3-2021.10/bin/../lib/gcc/arm-none-eabi/10.3.1/../../../../arm-none-eabi/lib/thumb/v7e-m+fp/hard/libc_nano.a(lib_a-closer.o)
                                                  /opt/gcc-arm-none-eabi-10.3-2021.10/bin/../lib/gcc/arm-none-eabi/10.3.1/../../../../arm-none-eabi/lib/thumb/v7e-m+fp/hard/libc_nano.a(lib_a-stdio.o)
_ebss                                             /home/tony/workdir/stm32h7xxcpplib/output/startup_stm32h750xx.o
_edata                                            /home/tony/workdir/stm32h7xxcpplib/output/startup_stm32h750xx.o
_estack                                           /home/tony/workdir/stm32h7xxcpplib/output/startup_stm32h750xx.o
_exit                                             /opt/gcc-arm-none-eabi-10.3-2021.10/bin/../lib/gcc/arm-none-eabi/10.3.1/../../../../arm-none-eabi/lib/thumb/v7e-m+fp/hard/libnosys.a(_exit.o)
                                                  /opt/gcc-arm-none-eabi-10.3-2021.10/bin/../lib/gcc/arm-none-eabi/10.3.1/../../../../arm-none-eabi/lib/thumb/v7e-m+fp/hard/libc_nano.a(lib_a-exit.o)
_fflush_r                                         /opt/gcc-arm-none-eabi-10.3-2021.10/bin/../lib/gcc/arm-none-eabi/10.3.1/../../../../arm-none-eabi/lib/thumb/v7e-m+fp/hard/libc_nano.a(lib_a-fflush.o)
                                                  /opt/gcc-arm-none-eabi-10.3-2021.10/bin/../lib/gcc/arm-none-eabi/10.3.1/../../../../arm-none-eabi/lib/thumb/v7e-m+fp/hard/libc_nano.a(lib_a-fvwrite.o)
                                                  /opt/gcc-arm-none-eabi-10.3-2021.10/bin/../lib/gcc/arm-none-eabi/10.3.1/../../../../arm-none-eabi/lib/thumb/v7e-m+fp/hard/libc_nano.a(lib_a-wbuf.o)
                                                  /opt/gcc-arm-none-eabi-10.3-2021.10/bin/../lib/gcc/arm-none-eabi/10.3.1/../../../../arm-none-eabi/lib/thumb/v7e-m+fp/hard/libc_nano.a(lib_a-findfp.o)
_fini                                             /opt/gcc-arm-none-eabi-10.3-2021.10/bin/../lib/gcc/arm-none-eabi/10.3.1/thumb/v7e-m+fp/hard/crti.o
_free_r                                           /opt/gcc-arm-none-eabi-10.3-2021.10/bin/../lib/gcc/arm-none-eabi/10.3.1/../../../../arm-none-eabi/lib/thumb/v7e-m+fp/hard/libc_nano.a(lib_a-nano-freer.o)
                                                  /opt/gcc-arm-none-eabi-10.3-2021.10/bin/../lib/gcc/arm-none-eabi/10.3.1/../../../../arm-none-eabi/lib/thumb/v7e-m+fp/hard/libc_nano.a(lib_a-reent.o)
                                                  /opt/gcc-arm-none-eabi-10.3-2021.10/bin/../lib/gcc/arm-none-eabi/10.3.1/../../../../arm-none-eabi/lib/thumb/v7e-m+fp/hard/libc_nano.a(lib_a-nano-reallocr.o)
                                                  /opt/gcc-arm-none-eabi-10.3-2021.10/bin/../lib/gcc/arm-none-eabi/10.3.1/../../../../arm-none-eabi/lib/thumb/v7e-m+fp/hard/libc_nano.a(lib_a-fvwrite.o)
                                                  /opt/gcc-arm-none-eabi-10.3-2021.10/bin/../lib/gcc/arm-none-eabi/10.3.1/../../../../arm-none-eabi/lib/thumb/v7e-m+fp/hard/libc_nano.a(lib_a-fflush.o)
                                                  /opt/gcc-arm-none-eabi-10.3-2021.10/bin/../lib/gcc/arm-none-eabi/10.3.1/../../../../arm-none-eabi/lib/thumb/v7e-m+fp/hard/libc_nano.a(lib_a-wsetup.o)
_fstat                                            /opt/gcc-arm-none-eabi-10.3-2021.10/bin/../lib/gcc/arm-none-eabi/10.3.1/../../../../arm-none-eabi/lib/thumb/v7e-m+fp/hard/libnosys.a(fstat.o)
                                                  /opt/gcc-arm-none-eabi-10.3-2021.10/bin/../lib/gcc/arm-none-eabi/10.3.1/../../../../arm-none-eabi/lib/thumb/v7e-m+fp/hard/libc_nano.a(lib_a-fstatr.o)
_fstat_r                                          /opt/gcc-arm-none-eabi-10.3-2021.10/bin/../lib/gcc/arm-none-eabi/10.3.1/../../../../arm-none-eabi/lib/thumb/v7e-m+fp/hard/libc_nano.a(lib_a-fstatr.o)
                                                  /opt/gcc-arm-none-eabi-10.3-2021.10/bin/../lib/gcc/arm-none-eabi/10.3.1/../../../../arm-none-eabi/lib/thumb/v7e-m+fp/hard/libc_nano.a(lib_a-makebuf.o)
_fwalk                                            /opt/gcc-arm-none-eabi-10.3-2021.10/bin/../lib/gcc/arm-none-eabi/10.3.1/../../../../arm-none-eabi/lib/thumb/v7e-m+fp/hard/libc_nano.a(lib_a-fwalk.o)
                                                  /opt/gcc-arm-none-eabi-10.3-2021.10/bin/../lib/gcc/arm-none-eabi/10.3.1/../../../../arm-none-eabi/lib/thumb/v7e-m+fp/hard/libc_nano.a(lib_a-findfp.o)
_fwalk_reent                                      /opt/gcc-arm-none-eabi-10.3-2021.10/bin/../lib/gcc/arm-none-eabi/10.3.1/../../../../arm-none-eabi/lib/thumb/v7e-m+fp/hard/libc_nano.a(lib_a-fwalk.o)
                                                  /opt/gcc-arm-none-eabi-10.3-2021.10/bin/../lib/gcc/arm-none-eabi/10.3.1/../../../../arm-none-eabi/lib/thumb/v7e-m+fp/hard/libc_nano.a(lib_a-fflush.o)
                                                  /opt/gcc-arm-none-eabi-10.3-2021.10/bin/../lib/gcc/arm-none-eabi/10.3.1/../../../../arm-none-eabi/lib/thumb/v7e-m+fp/hard/libc_nano.a(lib_a-findfp.o)
_global_impure_ptr                                /opt/gcc-arm-none-eabi-10.3-2021.10/bin/../lib/gcc/arm-none-eabi/10.3.1/../../../../arm-none-eabi/lib/thumb/v7e-m+fp/hard/libc_nano.a(lib_a-impure.o)
                                                  /opt/gcc-arm-none-eabi-10.3-2021.10/bin/../lib/gcc/arm-none-eabi/10.3.1/../../../../arm-none-eabi/lib/thumb/v7e-m+fp/hard/libc_nano.a(lib_a-fflush.o)
                                                  /opt/gcc-arm-none-eabi-10.3-2021.10/bin/../lib/gcc/arm-none-eabi/10.3.1/../../../../arm-none-eabi/lib/thumb/v7e-m+fp/hard/libc_nano.a(lib_a-findfp.o)
                                                  /opt/gcc-arm-none-eabi-10.3-2021.10/bin/../lib/gcc/arm-none-eabi/10.3.1/../../../../arm-none-eabi/lib/thumb/v7e-m+fp/hard/libc_nano.a(lib_a-exit.o)
_impure_ptr                                       /opt/gcc-arm-none-eabi-10.3-2021.10/bin/../lib/gcc/arm-none-eabi/10.3.1/../../../../arm-none-eabi/lib/thumb/v7e-m+fp/hard/libc_nano.a(lib_a-impure.o)
                                                  /opt/gcc-arm-none-eabi-10.3-2021.10/bin/../lib/gcc/arm-none-eabi/10.3.1/../../../../arm-none-eabi/lib/thumb/v7e-m+fp/hard/libc_nano.a(lib_a-reent.o)
                                                  /opt/gcc-arm-none-eabi-10.3-2021.10/bin/../lib/gcc/arm-none-eabi/10.3.1/../../../../arm-none-eabi/lib/thumb/v7e-m+fp/hard/libc_nano.a(lib_a-fflush.o)
                                                  /opt/gcc-arm-none-eabi-10.3-2021.10/bin/../lib/gcc/arm-none-eabi/10.3.1/../../../../arm-none-eabi/lib/thumb/v7e-m+fp/hard/libc_nano.a(lib_a-wsetup.o)
                                                  /opt/gcc-arm-none-eabi-10.3-2021.10/bin/../lib/gcc/arm-none-eabi/10.3.1/../../../../arm-none-eabi/lib/thumb/v7e-m+fp/hard/libc_nano.a(lib_a-wbuf.o)
                                                  /opt/gcc-arm-none-eabi-10.3-2021.10/bin/../lib/gcc/arm-none-eabi/10.3.1/../../../../arm-none-eabi/lib/thumb/v7e-m+fp/hard/libc_nano.a(lib_a-nano-vfprintf.o)
                                                  /opt/gcc-arm-none-eabi-10.3-2021.10/bin/../lib/gcc/arm-none-eabi/10.3.1/../../../../arm-none-eabi/lib/thumb/v7e-m+fp/hard/libc_nano.a(lib_a-findfp.o)
                                                  /opt/gcc-arm-none-eabi-10.3-2021.10/bin/../lib/gcc/arm-none-eabi/10.3.1/../../../../arm-none-eabi/lib/thumb/v7e-m+fp/hard/libc_nano.a(lib_a-printf.o)
_init                                             /opt/gcc-arm-none-eabi-10.3-2021.10/bin/../lib/gcc/arm-none-eabi/10.3.1/thumb/v7e-m+fp/hard/crti.o
                                                  /opt/gcc-arm-none-eabi-10.3-2021.10/bin/../lib/gcc/arm-none-eabi/10.3.1/../../../../arm-none-eabi/lib/thumb/v7e-m+fp/hard/libc_nano.a(lib_a-init.o)
_iprintf_r                                        /opt/gcc-arm-none-eabi-10.3-2021.10/bin/../lib/gcc/arm-none-eabi/10.3.1/../../../../arm-none-eabi/lib/thumb/v7e-m+fp/hard/libc_nano.a(lib_a-printf.o)
_isatty                                           /opt/gcc-arm-none-eabi-10.3-2021.10/bin/../lib/gcc/arm-none-eabi/10.3.1/../../../../arm-none-eabi/lib/thumb/v7e-m+fp/hard/libnosys.a(isatty.o)
                                                  /opt/gcc-arm-none-eabi-10.3-2021.10/bin/../lib/gcc/arm-none-eabi/10.3.1/../../../../arm-none-eabi/lib/thumb/v7e-m+fp/hard/libc_nano.a(lib_a-isattyr.o)
_isatty_r                                         /opt/gcc-arm-none-eabi-10.3-2021.10/bin/../lib/gcc/arm-none-eabi/10.3.1/../../../../arm-none-eabi/lib/thumb/v7e-m+fp/hard/libc_nano.a(lib_a-isattyr.o)
                                                  /opt/gcc-arm-none-eabi-10.3-2021.10/bin/../lib/gcc/arm-none-eabi/10.3.1/../../../../arm-none-eabi/lib/thumb/v7e-m+fp/hard/libc_nano.a(lib_a-makebuf.o)
_lseek                                            /opt/gcc-arm-none-eabi-10.3-2021.10/bin/../lib/gcc/arm-none-eabi/10.3.1/../../../../arm-none-eabi/lib/thumb/v7e-m+fp/hard/libnosys.a(lseek.o)
                                                  /opt/gcc-arm-none-eabi-10.3-2021.10/bin/../lib/gcc/arm-none-eabi/10.3.1/../../../../arm-none-eabi/lib/thumb/v7e-m+fp/hard/libc_nano.a(lib_a-lseekr.o)
_lseek_r                                          /opt/gcc-arm-none-eabi-10.3-2021.10/bin/../lib/gcc/arm-none-eabi/10.3.1/../../../../arm-none-eabi/lib/thumb/v7e-m+fp/hard/libc_nano.a(lib_a-lseekr.o)
                                                  /opt/gcc-arm-none-eabi-10.3-2021.10/bin/../lib/gcc/arm-none-eabi/10.3.1/../../../../arm-none-eabi/lib/thumb/v7e-m+fp/hard/libc_nano.a(lib_a-stdio.o)
_mainCRTStartup                                   /opt/gcc-arm-none-eabi-10.3-2021.10/bin/../lib/gcc/arm-none-eabi/10.3.1/../../../../arm-none-eabi/lib/thumb/v7e-m+fp/hard/crt0.o
_malloc_r                                         /opt/gcc-arm-none-eabi-10.3-2021.10/bin/../lib/gcc/arm-none-eabi/10.3.1/../../../../arm-none-eabi/lib/thumb/v7e-m+fp/hard/libc_nano.a(lib_a-nano-mallocr.o)
                                                  /opt/gcc-arm-none-eabi-10.3-2021.10/bin/../lib/gcc/arm-none-eabi/10.3.1/../../../../arm-none-eabi/lib/thumb/v7e-m+fp/hard/libc_nano.a(lib_a-nano-reallocr.o)
                                                  /opt/gcc-arm-none-eabi-10.3-2021.10/bin/../lib/gcc/arm-none-eabi/10.3.1/../../../../arm-none-eabi/lib/thumb/v7e-m+fp/hard/libc_nano.a(lib_a-makebuf.o)
                                                  /opt/gcc-arm-none-eabi-10.3-2021.10/bin/../lib/gcc/arm-none-eabi/10.3.1/../../../../arm-none-eabi/lib/thumb/v7e-m+fp/hard/libc_nano.a(lib_a-fvwrite.o)
                                                  /opt/gcc-arm-none-eabi-10.3-2021.10/bin/../lib/gcc/arm-none-eabi/10.3.1/../../../../arm-none-eabi/lib/thumb/v7e-m+fp/hard/libc_nano.a(lib_a-findfp.o)
_malloc_usable_size_r                             /opt/gcc-arm-none-eabi-10.3-2021.10/bin/../lib/gcc/arm-none-eabi/10.3.1/../../../../arm-none-eabi/lib/thumb/v7e-m+fp/hard/libc_nano.a(lib_a-nano-msizer.o)
                                                  /opt/gcc-arm-none-eabi-10.3-2021.10/bin/../lib/gcc/arm-none-eabi/10.3.1/../../../../arm-none-eabi/lib/thumb/v7e-m+fp/hard/libc_nano.a(lib_a-nano-reallocr.o)
_printf_common                                    /opt/gcc-arm-none-eabi-10.3-2021.10/bin/../lib/gcc/arm-none-eabi/10.3.1/../../../../arm-none-eabi/lib/thumb/v7e-m+fp/hard/libc_nano.a(lib_a-nano-vfprintf_i.o)
_printf_float                                     /opt/gcc-arm-none-eabi-10.3-2021.10/bin/../lib/gcc/arm-none-eabi/10.3.1/../../../../arm-none-eabi/lib/thumb/v7e-m+fp/hard/libc_nano.a(lib_a-nano-vfprintf.o)
_printf_i                                         /opt/gcc-arm-none-eabi-10.3-2021.10/bin/../lib/gcc/arm-none-eabi/10.3.1/../../../../arm-none-eabi/lib/thumb/v7e-m+fp/hard/libc_nano.a(lib_a-nano-vfprintf_i.o)
                                                  /opt/gcc-arm-none-eabi-10.3-2021.10/bin/../lib/gcc/arm-none-eabi/10.3.1/../../../../arm-none-eabi/lib/thumb/v7e-m+fp/hard/libc_nano.a(lib_a-nano-vfprintf.o)
_printf_r                                         /opt/gcc-arm-none-eabi-10.3-2021.10/bin/../lib/gcc/arm-none-eabi/10.3.1/../../../../arm-none-eabi/lib/thumb/v7e-m+fp/hard/libc_nano.a(lib_a-printf.o)
_read                                             /home/tony/workdir/stm32h7xxcpplib/output/printfremap.o
                                                  /opt/gcc-arm-none-eabi-10.3-2021.10/bin/../lib/gcc/arm-none-eabi/10.3.1/../../../../arm-none-eabi/lib/thumb/v7e-m+fp/hard/libc_nano.a(lib_a-readr.o)
_read_r                                           /opt/gcc-arm-none-eabi-10.3-2021.10/bin/../lib/gcc/arm-none-eabi/10.3.1/../../../../arm-none-eabi/lib/thumb/v7e-m+fp/hard/libc_nano.a(lib_a-readr.o)
                                                  /opt/gcc-arm-none-eabi-10.3-2021.10/bin/../lib/gcc/arm-none-eabi/10.3.1/../../../../arm-none-eabi/lib/thumb/v7e-m+fp/hard/libc_nano.a(lib_a-stdio.o)
_realloc_r                                        /opt/gcc-arm-none-eabi-10.3-2021.10/bin/../lib/gcc/arm-none-eabi/10.3.1/../../../../arm-none-eabi/lib/thumb/v7e-m+fp/hard/libc_nano.a(lib_a-nano-reallocr.o)
                                                  /opt/gcc-arm-none-eabi-10.3-2021.10/bin/../lib/gcc/arm-none-eabi/10.3.1/../../../../arm-none-eabi/lib/thumb/v7e-m+fp/hard/libc_nano.a(lib_a-fvwrite.o)
_reclaim_reent                                    /opt/gcc-arm-none-eabi-10.3-2021.10/bin/../lib/gcc/arm-none-eabi/10.3.1/../../../../arm-none-eabi/lib/thumb/v7e-m+fp/hard/libc_nano.a(lib_a-reent.o)
_sbrk                                             /opt/gcc-arm-none-eabi-10.3-2021.10/bin/../lib/gcc/arm-none-eabi/10.3.1/../../../../arm-none-eabi/lib/thumb/v7e-m+fp/hard/libnosys.a(sbrk.o)
                                                  /opt/gcc-arm-none-eabi-10.3-2021.10/bin/../lib/gcc/arm-none-eabi/10.3.1/../../../../arm-none-eabi/lib/thumb/v7e-m+fp/hard/libc_nano.a(lib_a-sbrkr.o)
_sbrk_r                                           /opt/gcc-arm-none-eabi-10.3-2021.10/bin/../lib/gcc/arm-none-eabi/10.3.1/../../../../arm-none-eabi/lib/thumb/v7e-m+fp/hard/libc_nano.a(lib_a-sbrkr.o)
                                                  /opt/gcc-arm-none-eabi-10.3-2021.10/bin/../lib/gcc/arm-none-eabi/10.3.1/../../../../arm-none-eabi/lib/thumb/v7e-m+fp/hard/libc_nano.a(lib_a-nano-mallocr.o)
_sbss                                             /home/tony/workdir/stm32h7xxcpplib/output/startup_stm32h750xx.o
_sdata                                            /home/tony/workdir/stm32h7xxcpplib/output/startup_stm32h750xx.o
_sidata                                           /home/tony/workdir/stm32h7xxcpplib/output/startup_stm32h750xx.o
_stack_init                                       /opt/gcc-arm-none-eabi-10.3-2021.10/bin/../lib/gcc/arm-none-eabi/10.3.1/../../../../arm-none-eabi/lib/thumb/v7e-m+fp/hard/crt0.o
_start                                            /opt/gcc-arm-none-eabi-10.3-2021.10/bin/../lib/gcc/arm-none-eabi/10.3.1/../../../../arm-none-eabi/lib/thumb/v7e-m+fp/hard/crt0.o
_vfiprintf_r                                      /opt/gcc-arm-none-eabi-10.3-2021.10/bin/../lib/gcc/arm-none-eabi/10.3.1/../../../../arm-none-eabi/lib/thumb/v7e-m+fp/hard/libc_nano.a(lib_a-nano-vfprintf.o)
_vfprintf_r                                       /opt/gcc-arm-none-eabi-10.3-2021.10/bin/../lib/gcc/arm-none-eabi/10.3.1/../../../../arm-none-eabi/lib/thumb/v7e-m+fp/hard/libc_nano.a(lib_a-nano-vfprintf.o)
                                                  /opt/gcc-arm-none-eabi-10.3-2021.10/bin/../lib/gcc/arm-none-eabi/10.3.1/../../../../arm-none-eabi/lib/thumb/v7e-m+fp/hard/libc_nano.a(lib_a-printf.o)
_write                                            /home/tony/workdir/stm32h7xxcpplib/output/printfremap.o
                                                  /opt/gcc-arm-none-eabi-10.3-2021.10/bin/../lib/gcc/arm-none-eabi/10.3.1/../../../../arm-none-eabi/lib/thumb/v7e-m+fp/hard/libc_nano.a(lib_a-writer.o)
_write_r                                          /opt/gcc-arm-none-eabi-10.3-2021.10/bin/../lib/gcc/arm-none-eabi/10.3.1/../../../../arm-none-eabi/lib/thumb/v7e-m+fp/hard/libc_nano.a(lib_a-writer.o)
                                                  /opt/gcc-arm-none-eabi-10.3-2021.10/bin/../lib/gcc/arm-none-eabi/10.3.1/../../../../arm-none-eabi/lib/thumb/v7e-m+fp/hard/libc_nano.a(lib_a-stdio.o)
atexit                                            /opt/gcc-arm-none-eabi-10.3-2021.10/bin/../lib/gcc/arm-none-eabi/10.3.1/../../../../arm-none-eabi/lib/thumb/v7e-m+fp/hard/crt0.o
bliink                                            /home/tony/workdir/stm32h7xxcpplib/output/main.o
boardInit()                                       /home/tony/workdir/stm32h7xxcpplib/output/board.o
                                                  /home/tony/workdir/stm32h7xxcpplib/output/mcomponents.o
cleanup_glue                                      /opt/gcc-arm-none-eabi-10.3-2021.10/bin/../lib/gcc/arm-none-eabi/10.3.1/../../../../arm-none-eabi/lib/thumb/v7e-m+fp/hard/libc_nano.a(lib_a-reent.o)
clockInit(unsigned long, unsigned long, unsigned long, unsigned long, unsigned long) /home/tony/workdir/stm32h7xxcpplib/output/systeminit.o
delayInit(unsigned long)                          /home/tony/workdir/stm32h7xxcpplib/output/delay.o
                                                  /home/tony/workdir/stm32h7xxcpplib/output/systeminit.o
delayMs(unsigned short)                           /home/tony/workdir/stm32h7xxcpplib/output/delay.o
delayTick                                         /home/tony/workdir/stm32h7xxcpplib/output/isrcommon.o
delayUs(unsigned long)                            /home/tony/workdir/stm32h7xxcpplib/output/delay.o
end                                               /opt/gcc-arm-none-eabi-10.3-2021.10/bin/../lib/gcc/arm-none-eabi/10.3.1/../../../../arm-none-eabi/lib/thumb/v7e-m+fp/hard/libnosys.a(sbrk.o)
entry                                             /home/tony/workdir/stm32h7xxcpplib/output/mcomponents.o
                                                  /home/tony/workdir/stm32h7xxcpplib/output/startup_stm32h750xx.o
errno                                             /opt/gcc-arm-none-eabi-10.3-2021.10/bin/../lib/gcc/arm-none-eabi/10.3.1/../../../../arm-none-eabi/lib/thumb/v7e-m+fp/hard/libc_nano.a(lib_a-reent.o)
                                                  /opt/gcc-arm-none-eabi-10.3-2021.10/bin/../lib/gcc/arm-none-eabi/10.3.1/../../../../arm-none-eabi/lib/thumb/v7e-m+fp/hard/libnosys.a(lseek.o)
                                                  /opt/gcc-arm-none-eabi-10.3-2021.10/bin/../lib/gcc/arm-none-eabi/10.3.1/../../../../arm-none-eabi/lib/thumb/v7e-m+fp/hard/libnosys.a(isatty.o)
                                                  /opt/gcc-arm-none-eabi-10.3-2021.10/bin/../lib/gcc/arm-none-eabi/10.3.1/../../../../arm-none-eabi/lib/thumb/v7e-m+fp/hard/libnosys.a(fstat.o)
                                                  /opt/gcc-arm-none-eabi-10.3-2021.10/bin/../lib/gcc/arm-none-eabi/10.3.1/../../../../arm-none-eabi/lib/thumb/v7e-m+fp/hard/libnosys.a(close.o)
                                                  /opt/gcc-arm-none-eabi-10.3-2021.10/bin/../lib/gcc/arm-none-eabi/10.3.1/../../../../arm-none-eabi/lib/thumb/v7e-m+fp/hard/libc_nano.a(lib_a-isattyr.o)
                                                  /opt/gcc-arm-none-eabi-10.3-2021.10/bin/../lib/gcc/arm-none-eabi/10.3.1/../../../../arm-none-eabi/lib/thumb/v7e-m+fp/hard/libc_nano.a(lib_a-fstatr.o)
                                                  /opt/gcc-arm-none-eabi-10.3-2021.10/bin/../lib/gcc/arm-none-eabi/10.3.1/../../../../arm-none-eabi/lib/thumb/v7e-m+fp/hard/libc_nano.a(lib_a-readr.o)
                                                  /opt/gcc-arm-none-eabi-10.3-2021.10/bin/../lib/gcc/arm-none-eabi/10.3.1/../../../../arm-none-eabi/lib/thumb/v7e-m+fp/hard/libc_nano.a(lib_a-lseekr.o)
                                                  /opt/gcc-arm-none-eabi-10.3-2021.10/bin/../lib/gcc/arm-none-eabi/10.3.1/../../../../arm-none-eabi/lib/thumb/v7e-m+fp/hard/libc_nano.a(lib_a-closer.o)
                                                  /opt/gcc-arm-none-eabi-10.3-2021.10/bin/../lib/gcc/arm-none-eabi/10.3.1/../../../../arm-none-eabi/lib/thumb/v7e-m+fp/hard/libc_nano.a(lib_a-writer.o)
                                                  /opt/gcc-arm-none-eabi-10.3-2021.10/bin/../lib/gcc/arm-none-eabi/10.3.1/../../../../arm-none-eabi/lib/thumb/v7e-m+fp/hard/libc_nano.a(lib_a-sbrkr.o)
exit                                              /opt/gcc-arm-none-eabi-10.3-2021.10/bin/../lib/gcc/arm-none-eabi/10.3.1/../../../../arm-none-eabi/lib/thumb/v7e-m+fp/hard/libc_nano.a(lib_a-exit.o)
                                                  /opt/gcc-arm-none-eabi-10.3-2021.10/bin/../lib/gcc/arm-none-eabi/10.3.1/../../../../arm-none-eabi/lib/thumb/v7e-m+fp/hard/crt0.o
fflush                                            /opt/gcc-arm-none-eabi-10.3-2021.10/bin/../lib/gcc/arm-none-eabi/10.3.1/../../../../arm-none-eabi/lib/thumb/v7e-m+fp/hard/libc_nano.a(lib_a-fflush.o)
g_pfnVectors                                      /home/tony/workdir/stm32h7xxcpplib/output/startup_stm32h750xx.o
getTick                                           /home/tony/workdir/stm32h7xxcpplib/output/isrcommon.o
getTickFreq                                       /home/tony/workdir/stm32h7xxcpplib/output/isrcommon.o
getTickPrio                                       /home/tony/workdir/stm32h7xxcpplib/output/isrcommon.o
gpioxIsrCallback                                  /home/tony/workdir/stm32h7xxcpplib/output/isrcommon.o
guard variable for CORTEX::getInstance()::cortex  /home/tony/workdir/stm32h7xxcpplib/output/systeminit.o
guard variable for CORTEXM7MPU::getInstance()::mpu /home/tony/workdir/stm32h7xxcpplib/output/systeminit.o
guard variable for RCCControl::getInstance()::rcc_ /home/tony/workdir/stm32h7xxcpplib/output/main.o
                                                  /home/tony/workdir/stm32h7xxcpplib/output/systeminit.o
guard variable for mClock::getInstance()::clk     /home/tony/workdir/stm32h7xxcpplib/output/board.o
                                                  /home/tony/workdir/stm32h7xxcpplib/output/mtimer.o
                                                  /home/tony/workdir/stm32h7xxcpplib/output/mthread.o
                                                  /home/tony/workdir/stm32h7xxcpplib/output/mcomponents.o
guard variable for mComponets::getInstance()::com /home/tony/workdir/stm32h7xxcpplib/output/mcomponents.o
guard variable for mIdle::getInstance()::idle     /home/tony/workdir/stm32h7xxcpplib/output/mcomponents.o
guard variable for mIrq::getInstance()::irq       /home/tony/workdir/stm32h7xxcpplib/output/board.o
                                                  /home/tony/workdir/stm32h7xxcpplib/output/mscheduler.o
guard variable for mKservice::getInstance()::service /home/tony/workdir/stm32h7xxcpplib/output/mscheduler.o
guard variable for mMem::getInstance()::mem       /home/tony/workdir/stm32h7xxcpplib/output/main.o
                                                  /home/tony/workdir/stm32h7xxcpplib/output/mmem.o
                                                  /home/tony/workdir/stm32h7xxcpplib/output/board.o
guard variable for mObject::getInstance()::obj    /home/tony/workdir/stm32h7xxcpplib/output/midle.o
                                                  /home/tony/workdir/stm32h7xxcpplib/output/mtimer.o
                                                  /home/tony/workdir/stm32h7xxcpplib/output/mthread.o
                                                  /home/tony/workdir/stm32h7xxcpplib/output/mipc.o
guard variable for mSchedule::getInstance()::sch  /home/tony/workdir/stm32h7xxcpplib/output/mclock.o
                                                  /home/tony/workdir/stm32h7xxcpplib/output/mthread.o
                                                  /home/tony/workdir/stm32h7xxcpplib/output/mobject.o
                                                  /home/tony/workdir/stm32h7xxcpplib/output/mipc.o
                                                  /home/tony/workdir/stm32h7xxcpplib/output/midle.o
                                                  /home/tony/workdir/stm32h7xxcpplib/output/mcomponents.o
hardware_init_hook                                /opt/gcc-arm-none-eabi-10.3-2021.10/bin/../lib/gcc/arm-none-eabi/10.3.1/../../../../arm-none-eabi/lib/thumb/v7e-m+fp/hard/crt0.o
hwContextSwitch                                   /home/tony/workdir/stm32h7xxcpplib/output/context_gcc.o
                                                  /home/tony/workdir/stm32h7xxcpplib/output/mscheduler.o
hwContextSwitchInterrupt                          /home/tony/workdir/stm32h7xxcpplib/output/context_gcc.o
                                                  /home/tony/workdir/stm32h7xxcpplib/output/mscheduler.o
hwContextSwitchTo                                 /home/tony/workdir/stm32h7xxcpplib/output/context_gcc.o
                                                  /home/tony/workdir/stm32h7xxcpplib/output/mscheduler.o
hwHardFaultException                              /home/tony/workdir/stm32h7xxcpplib/output/cpuport.o
                                                  /home/tony/workdir/stm32h7xxcpplib/output/context_gcc.o
hwInit()                                          /home/tony/workdir/stm32h7xxcpplib/output/systeminit.o
                                                  /home/tony/workdir/stm32h7xxcpplib/output/board.o
hwInterruptDisable                                /home/tony/workdir/stm32h7xxcpplib/output/context_gcc.o
                                                  /home/tony/workdir/stm32h7xxcpplib/output/mtimer.o
                                                  /home/tony/workdir/stm32h7xxcpplib/output/mthread.o
                                                  /home/tony/workdir/stm32h7xxcpplib/output/mscheduler.o
                                                  /home/tony/workdir/stm32h7xxcpplib/output/mobject.o
                                                  /home/tony/workdir/stm32h7xxcpplib/output/mirq.o
                                                  /home/tony/workdir/stm32h7xxcpplib/output/mipc.o
                                                  /home/tony/workdir/stm32h7xxcpplib/output/midle.o
                                                  /home/tony/workdir/stm32h7xxcpplib/output/mcomponents.o
                                                  /home/tony/workdir/stm32h7xxcpplib/output/mclock.o
hwInterruptEnable                                 /home/tony/workdir/stm32h7xxcpplib/output/context_gcc.o
                                                  /home/tony/workdir/stm32h7xxcpplib/output/mtimer.o
                                                  /home/tony/workdir/stm32h7xxcpplib/output/mthread.o
                                                  /home/tony/workdir/stm32h7xxcpplib/output/mscheduler.o
                                                  /home/tony/workdir/stm32h7xxcpplib/output/mobject.o
                                                  /home/tony/workdir/stm32h7xxcpplib/output/mirq.o
                                                  /home/tony/workdir/stm32h7xxcpplib/output/mipc.o
                                                  /home/tony/workdir/stm32h7xxcpplib/output/midle.o
                                                  /home/tony/workdir/stm32h7xxcpplib/output/mclock.o
hwStackInit                                       /home/tony/workdir/stm32h7xxcpplib/output/cpuport.o
                                                  /home/tony/workdir/stm32h7xxcpplib/output/mthread.o
incTick                                           /home/tony/workdir/stm32h7xxcpplib/output/isrcommon.o
                                                  /home/tony/workdir/stm32h7xxcpplib/output/board.o
initTick                                          /home/tony/workdir/stm32h7xxcpplib/output/isrcommon.o
                                                  /home/tony/workdir/stm32h7xxcpplib/output/systeminit.o
iprintf                                           /opt/gcc-arm-none-eabi-10.3-2021.10/bin/../lib/gcc/arm-none-eabi/10.3.1/../../../../arm-none-eabi/lib/thumb/v7e-m+fp/hard/libc_nano.a(lib_a-printf.o)
lptimHandlerISREvent                              /home/tony/workdir/stm32h7xxcpplib/output/isrcommon.o
lptimxIsrCallback                                 /home/tony/workdir/stm32h7xxcpplib/output/isrcommon.o
mClock::getInstance()                             /home/tony/workdir/stm32h7xxcpplib/output/mcomponents.o
                                                  /home/tony/workdir/stm32h7xxcpplib/output/mtimer.o
                                                  /home/tony/workdir/stm32h7xxcpplib/output/mthread.o
mClock::getInstance()::clk                        /home/tony/workdir/stm32h7xxcpplib/output/board.o
                                                  /home/tony/workdir/stm32h7xxcpplib/output/mtimer.o
                                                  /home/tony/workdir/stm32h7xxcpplib/output/mthread.o
                                                  /home/tony/workdir/stm32h7xxcpplib/output/mcomponents.o
mClock::getRegisterCb()                           /home/tony/workdir/stm32h7xxcpplib/output/mclock.o
                                                  /home/tony/workdir/stm32h7xxcpplib/output/mtimer.o
                                                  /home/tony/workdir/stm32h7xxcpplib/output/mthread.o
                                                  /home/tony/workdir/stm32h7xxcpplib/output/mcomponents.o
mClock::tickFromMillisecond(long)                 /home/tony/workdir/stm32h7xxcpplib/output/mclock.o
                                                  /home/tony/workdir/stm32h7xxcpplib/output/mthread.o
mClock::tickGet()                                 /home/tony/workdir/stm32h7xxcpplib/output/mclock.o
                                                  /home/tony/workdir/stm32h7xxcpplib/output/mtimer.o
                                                  /home/tony/workdir/stm32h7xxcpplib/output/mthread.o
mClock::tickIncrease()                            /home/tony/workdir/stm32h7xxcpplib/output/mclock.o
                                                  /home/tony/workdir/stm32h7xxcpplib/output/board.o
mClock::tickSet(unsigned long)                    /home/tony/workdir/stm32h7xxcpplib/output/mclock.o
mClock::~mClock()                                 /home/tony/workdir/stm32h7xxcpplib/output/board.o
                                                  /home/tony/workdir/stm32h7xxcpplib/output/mtimer.o
                                                  /home/tony/workdir/stm32h7xxcpplib/output/mthread.o
                                                  /home/tony/workdir/stm32h7xxcpplib/output/mcomponents.o
mClock::~mClock()                                 /home/tony/workdir/stm32h7xxcpplib/output/board.o
                                                  /home/tony/workdir/stm32h7xxcpplib/output/mtimer.o
                                                  /home/tony/workdir/stm32h7xxcpplib/output/mthread.o
                                                  /home/tony/workdir/stm32h7xxcpplib/output/mcomponents.o
mComponets::getInstance()::com                    /home/tony/workdir/stm32h7xxcpplib/output/mcomponents.o
mComponets::startUp()                             /home/tony/workdir/stm32h7xxcpplib/output/mcomponents.o
mComponets::~mComponets()                         /home/tony/workdir/stm32h7xxcpplib/output/mcomponents.o
mComponets::~mComponets()                         /home/tony/workdir/stm32h7xxcpplib/output/mcomponents.o
mIdle::exec()                                     /home/tony/workdir/stm32h7xxcpplib/output/midle.o
mIdle::getInstance()::idle                        /home/tony/workdir/stm32h7xxcpplib/output/mcomponents.o
mIdle::threadIdleInit()                           /home/tony/workdir/stm32h7xxcpplib/output/midle.o
                                                  /home/tony/workdir/stm32h7xxcpplib/output/mcomponents.o
mIdle::threadStack                                /home/tony/workdir/stm32h7xxcpplib/output/midle.o
mIdle::~mIdle()                                   /home/tony/workdir/stm32h7xxcpplib/output/mcomponents.o
mIdle::~mIdle()                                   /home/tony/workdir/stm32h7xxcpplib/output/mcomponents.o
mInterruptFromThread                              /home/tony/workdir/stm32h7xxcpplib/output/cpuport.o
                                                  /home/tony/workdir/stm32h7xxcpplib/output/context_gcc.o
mIpc::ipcListResume(mIpcObject_t*)                /home/tony/workdir/stm32h7xxcpplib/output/mipc.o
mIpc::ipcListResumeAll(mIpcObject_t*)             /home/tony/workdir/stm32h7xxcpplib/output/mipc.o
mIpc::ipcListSuspend(mIpcObject_t*, thread_t*, mIpcFlag) /home/tony/workdir/stm32h7xxcpplib/output/mipc.o
mIpc::ipcObjectInit(mIpcObject_t*)                /home/tony/workdir/stm32h7xxcpplib/output/mipc.o
mIrq::getInstance()                               /home/tony/workdir/stm32h7xxcpplib/output/board.o
                                                  /home/tony/workdir/stm32h7xxcpplib/output/mscheduler.o
mIrq::getInstance()::irq                          /home/tony/workdir/stm32h7xxcpplib/output/board.o
                                                  /home/tony/workdir/stm32h7xxcpplib/output/mscheduler.o
mIrq::getInterruptNestWithoutDisableIsr() const   /home/tony/workdir/stm32h7xxcpplib/output/mirq.o
                                                  /home/tony/workdir/stm32h7xxcpplib/output/mscheduler.o
mIrq::interruptEnter()                            /home/tony/workdir/stm32h7xxcpplib/output/mirq.o
                                                  /home/tony/workdir/stm32h7xxcpplib/output/board.o
mIrq::interruptGetNest() const                    /home/tony/workdir/stm32h7xxcpplib/output/mirq.o
mIrq::interruptLeave()                            /home/tony/workdir/stm32h7xxcpplib/output/mirq.o
                                                  /home/tony/workdir/stm32h7xxcpplib/output/board.o
mIrq::interruptNestReset()                        /home/tony/workdir/stm32h7xxcpplib/output/mirq.o
                                                  /home/tony/workdir/stm32h7xxcpplib/output/mscheduler.o
mIrq::~mIrq()                                     /home/tony/workdir/stm32h7xxcpplib/output/board.o
                                                  /home/tony/workdir/stm32h7xxcpplib/output/mscheduler.o
mIrq::~mIrq()                                     /home/tony/workdir/stm32h7xxcpplib/output/board.o
                                                  /home/tony/workdir/stm32h7xxcpplib/output/mscheduler.o
mKservice::__lowest_bit_bitmap                    /home/tony/workdir/stm32h7xxcpplib/output/mkservice.o
mKservice::__rt_ffs(int)                          /home/tony/workdir/stm32h7xxcpplib/output/mkservice.o
                                                  /home/tony/workdir/stm32h7xxcpplib/output/mscheduler.o
mKservice::getInstance()                          /home/tony/workdir/stm32h7xxcpplib/output/mscheduler.o
mKservice::getInstance()::service                 /home/tony/workdir/stm32h7xxcpplib/output/mscheduler.o
mKservice::~mKservice()                           /home/tony/workdir/stm32h7xxcpplib/output/mscheduler.o
mKservice::~mKservice()                           /home/tony/workdir/stm32h7xxcpplib/output/mscheduler.o
mMem::calloc(unsigned long, unsigned long)        /home/tony/workdir/stm32h7xxcpplib/output/mmem.o
mMem::free(void*)                                 /home/tony/workdir/stm32h7xxcpplib/output/mmem.o
mMem::getInstance()                               /home/tony/workdir/stm32h7xxcpplib/output/main.o
                                                  /home/tony/workdir/stm32h7xxcpplib/output/mmem.o
mMem::getInstance()::mem                          /home/tony/workdir/stm32h7xxcpplib/output/main.o
                                                  /home/tony/workdir/stm32h7xxcpplib/output/mmem.o
                                                  /home/tony/workdir/stm32h7xxcpplib/output/board.o
mMem::init(void*, void*)                          /home/tony/workdir/stm32h7xxcpplib/output/mmem.o
                                                  /home/tony/workdir/stm32h7xxcpplib/output/board.o
mMem::malloc(unsigned long)                       /home/tony/workdir/stm32h7xxcpplib/output/mmem.o
mMem::plugHoles(heapMem_t*)                       /home/tony/workdir/stm32h7xxcpplib/output/mmem.o
mMem::realloc(void*, unsigned long)               /home/tony/workdir/stm32h7xxcpplib/output/mmem.o
mMem::~mMem()                                     /home/tony/workdir/stm32h7xxcpplib/output/main.o
                                                  /home/tony/workdir/stm32h7xxcpplib/output/mmem.o
                                                  /home/tony/workdir/stm32h7xxcpplib/output/board.o
mMem::~mMem()                                     /home/tony/workdir/stm32h7xxcpplib/output/main.o
                                                  /home/tony/workdir/stm32h7xxcpplib/output/mmem.o
                                                  /home/tony/workdir/stm32h7xxcpplib/output/board.o
mObject::getInstance()                            /home/tony/workdir/stm32h7xxcpplib/output/mipc.o
                                                  /home/tony/workdir/stm32h7xxcpplib/output/mtimer.o
                                                  /home/tony/workdir/stm32h7xxcpplib/output/mthread.o
mObject::getInstance()::obj                       /home/tony/workdir/stm32h7xxcpplib/output/midle.o
                                                  /home/tony/workdir/stm32h7xxcpplib/output/mtimer.o
                                                  /home/tony/workdir/stm32h7xxcpplib/output/mthread.o
                                                  /home/tony/workdir/stm32h7xxcpplib/output/mipc.o
mObject::objectAdd(mObject_t*, mObjectClassType, char const*) /home/tony/workdir/stm32h7xxcpplib/output/mobject.o
                                                  /home/tony/workdir/stm32h7xxcpplib/output/mtimer.o
                                                  /home/tony/workdir/stm32h7xxcpplib/output/mthread.o
                                                  /home/tony/workdir/stm32h7xxcpplib/output/mipc.o
mObject::objectDetach(mObject_t*)                 /home/tony/workdir/stm32h7xxcpplib/output/mobject.o
                                                  /home/tony/workdir/stm32h7xxcpplib/output/mtimer.o
                                                  /home/tony/workdir/stm32h7xxcpplib/output/mthread.o
                                                  /home/tony/workdir/stm32h7xxcpplib/output/mipc.o
mObject::objectFind(char const*, mObjectClassType) /home/tony/workdir/stm32h7xxcpplib/output/mobject.o
                                                  /home/tony/workdir/stm32h7xxcpplib/output/mthread.o
mObject::objectGetInformation(mObjectClassType)   /home/tony/workdir/stm32h7xxcpplib/output/mobject.o
mObject::objectGetLength(mObjectClassType)        /home/tony/workdir/stm32h7xxcpplib/output/mobject.o
mObject::objectGetPointers(mObjectClassType, mObject_t**, int) /home/tony/workdir/stm32h7xxcpplib/output/mobject.o
mObject::objectGetType(mObject_t*)                /home/tony/workdir/stm32h7xxcpplib/output/mobject.o
                                                  /home/tony/workdir/stm32h7xxcpplib/output/mtimer.o
                                                  /home/tony/workdir/stm32h7xxcpplib/output/mthread.o
                                                  /home/tony/workdir/stm32h7xxcpplib/output/mipc.o
mObject::objectInfoInit()                         /home/tony/workdir/stm32h7xxcpplib/output/mobject.o
                                                  /home/tony/workdir/stm32h7xxcpplib/output/mtimer.o
                                                  /home/tony/workdir/stm32h7xxcpplib/output/mthread.o
                                                  /home/tony/workdir/stm32h7xxcpplib/output/mipc.o
                                                  /home/tony/workdir/stm32h7xxcpplib/output/midle.o
mObject::objectInit(mObject_t*, mObjectClassType, char const*) /home/tony/workdir/stm32h7xxcpplib/output/mobject.o
                                                  /home/tony/workdir/stm32h7xxcpplib/output/mtimer.o
                                                  /home/tony/workdir/stm32h7xxcpplib/output/mthread.o
                                                  /home/tony/workdir/stm32h7xxcpplib/output/mipc.o
mObject::objectIsSystemobject(mObject_t*)         /home/tony/workdir/stm32h7xxcpplib/output/mobject.o
                                                  /home/tony/workdir/stm32h7xxcpplib/output/mtimer.o
                                                  /home/tony/workdir/stm32h7xxcpplib/output/mthread.o
                                                  /home/tony/workdir/stm32h7xxcpplib/output/mipc.o
mObject::objectRemove(mObject_t*)                 /home/tony/workdir/stm32h7xxcpplib/output/mobject.o
                                                  /home/tony/workdir/stm32h7xxcpplib/output/mtimer.o
                                                  /home/tony/workdir/stm32h7xxcpplib/output/mthread.o
                                                  /home/tony/workdir/stm32h7xxcpplib/output/midle.o
mObject::~mObject()                               /home/tony/workdir/stm32h7xxcpplib/output/midle.o
                                                  /home/tony/workdir/stm32h7xxcpplib/output/mtimer.o
                                                  /home/tony/workdir/stm32h7xxcpplib/output/mthread.o
                                                  /home/tony/workdir/stm32h7xxcpplib/output/mipc.o
mObject::~mObject()                               /home/tony/workdir/stm32h7xxcpplib/output/midle.o
                                                  /home/tony/workdir/stm32h7xxcpplib/output/mtimer.o
                                                  /home/tony/workdir/stm32h7xxcpplib/output/mthread.o
                                                  /home/tony/workdir/stm32h7xxcpplib/output/mipc.o
mSchedule::criticalLevel()                        /home/tony/workdir/stm32h7xxcpplib/output/mscheduler.o
mSchedule::enterCritical()                        /home/tony/workdir/stm32h7xxcpplib/output/mscheduler.o
                                                  /home/tony/workdir/stm32h7xxcpplib/output/mobject.o
mSchedule::exitCritical()                         /home/tony/workdir/stm32h7xxcpplib/output/mscheduler.o
                                                  /home/tony/workdir/stm32h7xxcpplib/output/mobject.o
mSchedule::getCurrentThread()                     /home/tony/workdir/stm32h7xxcpplib/output/mscheduler.o
                                                  /home/tony/workdir/stm32h7xxcpplib/output/mthread.o
                                                  /home/tony/workdir/stm32h7xxcpplib/output/mclock.o
mSchedule::getInstance()                          /home/tony/workdir/stm32h7xxcpplib/output/mcomponents.o
                                                  /home/tony/workdir/stm32h7xxcpplib/output/mthread.o
                                                  /home/tony/workdir/stm32h7xxcpplib/output/mobject.o
                                                  /home/tony/workdir/stm32h7xxcpplib/output/mipc.o
                                                  /home/tony/workdir/stm32h7xxcpplib/output/midle.o
mSchedule::getInstance()::sch                     /home/tony/workdir/stm32h7xxcpplib/output/mclock.o
                                                  /home/tony/workdir/stm32h7xxcpplib/output/mthread.o
                                                  /home/tony/workdir/stm32h7xxcpplib/output/mobject.o
                                                  /home/tony/workdir/stm32h7xxcpplib/output/mipc.o
                                                  /home/tony/workdir/stm32h7xxcpplib/output/midle.o
                                                  /home/tony/workdir/stm32h7xxcpplib/output/mcomponents.o
mSchedule::getThreadDefunct()                     /home/tony/workdir/stm32h7xxcpplib/output/mscheduler.o
                                                  /home/tony/workdir/stm32h7xxcpplib/output/mthread.o
                                                  /home/tony/workdir/stm32h7xxcpplib/output/midle.o
mSchedule::getThreadPriorityTable(unsigned char)  /home/tony/workdir/stm32h7xxcpplib/output/mscheduler.o
                                                  /home/tony/workdir/stm32h7xxcpplib/output/mthread.o
mSchedule::schedule()                             /home/tony/workdir/stm32h7xxcpplib/output/mscheduler.o
                                                  /home/tony/workdir/stm32h7xxcpplib/output/mthread.o
                                                  /home/tony/workdir/stm32h7xxcpplib/output/mipc.o
mSchedule::scheduleInsertThread(thread_t*)        /home/tony/workdir/stm32h7xxcpplib/output/mscheduler.o
                                                  /home/tony/workdir/stm32h7xxcpplib/output/mthread.o
mSchedule::scheduleRemoveThread(thread_t*)        /home/tony/workdir/stm32h7xxcpplib/output/mscheduler.o
                                                  /home/tony/workdir/stm32h7xxcpplib/output/mthread.o
mSchedule::schedulerStackCheck(thread_t*)         /home/tony/workdir/stm32h7xxcpplib/output/mscheduler.o
mSchedule::systemSchedulerInit()                  /home/tony/workdir/stm32h7xxcpplib/output/mscheduler.o
                                                  /home/tony/workdir/stm32h7xxcpplib/output/mcomponents.o
mSchedule::systemSchedulerStart()                 /home/tony/workdir/stm32h7xxcpplib/output/mscheduler.o
                                                  /home/tony/workdir/stm32h7xxcpplib/output/mcomponents.o
mSchedule::~mSchedule()                           /home/tony/workdir/stm32h7xxcpplib/output/mclock.o
                                                  /home/tony/workdir/stm32h7xxcpplib/output/mthread.o
                                                  /home/tony/workdir/stm32h7xxcpplib/output/mobject.o
                                                  /home/tony/workdir/stm32h7xxcpplib/output/mipc.o
                                                  /home/tony/workdir/stm32h7xxcpplib/output/midle.o
                                                  /home/tony/workdir/stm32h7xxcpplib/output/mcomponents.o
mSchedule::~mSchedule()                           /home/tony/workdir/stm32h7xxcpplib/output/mclock.o
                                                  /home/tony/workdir/stm32h7xxcpplib/output/mthread.o
                                                  /home/tony/workdir/stm32h7xxcpplib/output/mobject.o
                                                  /home/tony/workdir/stm32h7xxcpplib/output/mipc.o
                                                  /home/tony/workdir/stm32h7xxcpplib/output/midle.o
                                                  /home/tony/workdir/stm32h7xxcpplib/output/mcomponents.o
mSemaphore::detach()                              /home/tony/workdir/stm32h7xxcpplib/output/mipc.o
mSemaphore::init(char const*, unsigned long, mIpcFlag) /home/tony/workdir/stm32h7xxcpplib/output/mipc.o
                                                  /home/tony/workdir/stm32h7xxcpplib/output/mmem.o
mSemaphore::semControl(mIpcCmd, void*)            /home/tony/workdir/stm32h7xxcpplib/output/mipc.o
mSemaphore::semCreateEx(char const*, unsigned long, mIpcFlag) /home/tony/workdir/stm32h7xxcpplib/output/mipc.o
mSemaphore::semDelete()                           /home/tony/workdir/stm32h7xxcpplib/output/mipc.o
mSemaphore::semRelease()                          /home/tony/workdir/stm32h7xxcpplib/output/mipc.o
                                                  /home/tony/workdir/stm32h7xxcpplib/output/mmem.o
mSemaphore::semTake(long)                         /home/tony/workdir/stm32h7xxcpplib/output/mipc.o
                                                  /home/tony/workdir/stm32h7xxcpplib/output/mmem.o
mSemaphore::semTrytake()                          /home/tony/workdir/stm32h7xxcpplib/output/mipc.o
mTimer::create(char const*, unsigned long, mTimerStateFlag, std::function<void ()> const&) /home/tony/workdir/stm32h7xxcpplib/output/mtimer.o
                                                  /home/tony/workdir/stm32h7xxcpplib/output/main.o
mTimer::getTime()                                 /home/tony/workdir/stm32h7xxcpplib/output/mtimer.o
mTimer::init(char const*, unsigned long, mTimerStateFlag, std::function<void ()> const&) /home/tony/workdir/stm32h7xxcpplib/output/mtimer.o
mTimer::init(char const*, void (*)(void*), void*, unsigned long, mTimerStateFlag) /home/tony/workdir/stm32h7xxcpplib/output/mtimer.o
                                                  /home/tony/workdir/stm32h7xxcpplib/output/mthread.o
mTimer::isTimerActived()                          /home/tony/workdir/stm32h7xxcpplib/output/mtimer.o
mTimer::mTimer()                                  /home/tony/workdir/stm32h7xxcpplib/output/mcomponents.o
mTimer::mTimer()                                  /home/tony/workdir/stm32h7xxcpplib/output/mcomponents.o
mTimer::mTimerCommonCallbackFunc(void*)           /home/tony/workdir/stm32h7xxcpplib/output/mtimer.o
mTimer::setTimerAndStart(unsigned long)           /home/tony/workdir/stm32h7xxcpplib/output/mtimer.o
                                                  /home/tony/workdir/stm32h7xxcpplib/output/main.o
mTimer::start()                                   /home/tony/workdir/stm32h7xxcpplib/output/mtimer.o
                                                  /home/tony/workdir/stm32h7xxcpplib/output/mthread.o
                                                  /home/tony/workdir/stm32h7xxcpplib/output/mipc.o
                                                  /home/tony/workdir/stm32h7xxcpplib/output/main.o
mTimer::stop()                                    /home/tony/workdir/stm32h7xxcpplib/output/mtimer.o
                                                  /home/tony/workdir/stm32h7xxcpplib/output/mthread.o
mTimer::timerCheck()                              /home/tony/workdir/stm32h7xxcpplib/output/mtimer.o
                                                  /home/tony/workdir/stm32h7xxcpplib/output/mthread.o
                                                  /home/tony/workdir/stm32h7xxcpplib/output/mcomponents.o
mTimer::timerControl(mTimerCtrl, void*)           /home/tony/workdir/stm32h7xxcpplib/output/mtimer.o
                                                  /home/tony/workdir/stm32h7xxcpplib/output/mthread.o
                                                  /home/tony/workdir/stm32h7xxcpplib/output/mipc.o
mTimer::timerCreate(char const*, unsigned long, mTimerStateFlag, std::function<void ()> const&) /home/tony/workdir/stm32h7xxcpplib/output/mtimer.o
mTimer::timerCreate(char const*, void (*)(void*), void*, unsigned long, mTimerStateFlag) /home/tony/workdir/stm32h7xxcpplib/output/mtimer.o
mTimer::timerDelete()                             /home/tony/workdir/stm32h7xxcpplib/output/mtimer.o
mTimer::timerDetach()                             /home/tony/workdir/stm32h7xxcpplib/output/mtimer.o
                                                  /home/tony/workdir/stm32h7xxcpplib/output/mthread.o
mTimer::timerInit(void (*)(void*), void*, unsigned long, mTimerStateFlag) /home/tony/workdir/stm32h7xxcpplib/output/mtimer.o
mTimer::timerListNextTimeout(mList_t*)            /home/tony/workdir/stm32h7xxcpplib/output/mtimer.o
mTimer::timerListTotal                            /home/tony/workdir/stm32h7xxcpplib/output/mtimer.o
mTimer::timerRemove(mTimer_t*)                    /home/tony/workdir/stm32h7xxcpplib/output/mtimer.o
main                                              /home/tony/workdir/stm32h7xxcpplib/output/main.o
                                                  /home/tony/workdir/stm32h7xxcpplib/output/mcomponents.o
                                                  /opt/gcc-arm-none-eabi-10.3-2021.10/bin/../lib/gcc/arm-none-eabi/10.3.1/../../../../arm-none-eabi/lib/thumb/v7e-m+fp/hard/crt0.o
mainThreadEntry(void*)                            /home/tony/workdir/stm32h7xxcpplib/output/mcomponents.o
memchr                                            /opt/gcc-arm-none-eabi-10.3-2021.10/bin/../lib/gcc/arm-none-eabi/10.3.1/../../../../arm-none-eabi/lib/thumb/v7e-m+fp/hard/libc_nano.a(lib_a-memchr.o)
                                                  /opt/gcc-arm-none-eabi-10.3-2021.10/bin/../lib/gcc/arm-none-eabi/10.3.1/../../../../arm-none-eabi/lib/thumb/v7e-m+fp/hard/libc_nano.a(lib_a-fvwrite.o)
                                                  /opt/gcc-arm-none-eabi-10.3-2021.10/bin/../lib/gcc/arm-none-eabi/10.3.1/../../../../arm-none-eabi/lib/thumb/v7e-m+fp/hard/libc_nano.a(lib_a-nano-vfprintf_i.o)
                                                  /opt/gcc-arm-none-eabi-10.3-2021.10/bin/../lib/gcc/arm-none-eabi/10.3.1/../../../../arm-none-eabi/lib/thumb/v7e-m+fp/hard/libc_nano.a(lib_a-nano-vfprintf.o)
memcpy                                            /opt/gcc-arm-none-eabi-10.3-2021.10/bin/../lib/gcc/arm-none-eabi/10.3.1/../../../../arm-none-eabi/lib/thumb/v7e-m+fp/hard/libc_nano.a(lib_a-memcpy-stub.o)
                                                  /opt/gcc-arm-none-eabi-10.3-2021.10/bin/../lib/gcc/arm-none-eabi/10.3.1/../../../../arm-none-eabi/lib/thumb/v7e-m+fp/hard/libc_nano.a(lib_a-nano-reallocr.o)
                                                  /opt/gcc-arm-none-eabi-10.3-2021.10/bin/../lib/gcc/arm-none-eabi/10.3.1/../../../../arm-none-eabi/lib/thumb/v7e-m+fp/hard/libc_nano.a(lib_a-fvwrite.o)
                                                  /home/tony/workdir/stm32h7xxcpplib/output/mmem.o
memmove                                           /opt/gcc-arm-none-eabi-10.3-2021.10/bin/../lib/gcc/arm-none-eabi/10.3.1/../../../../arm-none-eabi/lib/thumb/v7e-m+fp/hard/libc_nano.a(lib_a-memmove.o)
                                                  /opt/gcc-arm-none-eabi-10.3-2021.10/bin/../lib/gcc/arm-none-eabi/10.3.1/../../../../arm-none-eabi/lib/thumb/v7e-m+fp/hard/libc_nano.a(lib_a-fvwrite.o)
memset                                            /opt/gcc-arm-none-eabi-10.3-2021.10/bin/../lib/gcc/arm-none-eabi/10.3.1/../../../../arm-none-eabi/lib/thumb/v7e-m+fp/hard/libc_nano.a(lib_a-memset.o)
                                                  /opt/gcc-arm-none-eabi-10.3-2021.10/bin/../lib/gcc/arm-none-eabi/10.3.1/../../../../arm-none-eabi/lib/thumb/v7e-m+fp/hard/libc_nano.a(lib_a-findfp.o)
                                                  /home/tony/workdir/stm32h7xxcpplib/output/mthread.o
                                                  /home/tony/workdir/stm32h7xxcpplib/output/mmem.o
                                                  /opt/gcc-arm-none-eabi-10.3-2021.10/bin/../lib/gcc/arm-none-eabi/10.3.1/../../../../arm-none-eabi/lib/thumb/v7e-m+fp/hard/crt0.o
mpuMemoryProtection()                             /home/tony/workdir/stm32h7xxcpplib/output/systeminit.o
mtInterruptToThread                               /home/tony/workdir/stm32h7xxcpplib/output/cpuport.o
                                                  /home/tony/workdir/stm32h7xxcpplib/output/context_gcc.o
mtThreadSwitchInterruptFlag                       /home/tony/workdir/stm32h7xxcpplib/output/cpuport.o
                                                  /home/tony/workdir/stm32h7xxcpplib/output/context_gcc.o
mthread::create(char const*, unsigned long, unsigned char, unsigned long, std::function<void ()> const&) /home/tony/workdir/stm32h7xxcpplib/output/mthread.o
                                                  /home/tony/workdir/stm32h7xxcpplib/output/main.o
mthread::getThTimer()                             /home/tony/workdir/stm32h7xxcpplib/output/mthread.o
                                                  /home/tony/workdir/stm32h7xxcpplib/output/mipc.o
mthread::init(char const*, void (*)(void*), void*, void*, unsigned long, unsigned char, unsigned long) /home/tony/workdir/stm32h7xxcpplib/output/mthread.o
                                                  /home/tony/workdir/stm32h7xxcpplib/output/mcomponents.o
mthread::init(char const*, void*, unsigned long, unsigned char, unsigned long, std::function<void ()> const&) /home/tony/workdir/stm32h7xxcpplib/output/mthread.o
                                                  /home/tony/workdir/stm32h7xxcpplib/output/midle.o
mthread::name() const                             /home/tony/workdir/stm32h7xxcpplib/output/mthread.o
mthread::startup()                                /home/tony/workdir/stm32h7xxcpplib/output/mthread.o
                                                  /home/tony/workdir/stm32h7xxcpplib/output/midle.o
                                                  /home/tony/workdir/stm32h7xxcpplib/output/mcomponents.o
                                                  /home/tony/workdir/stm32h7xxcpplib/output/main.o
mthread::threadCleanupExecute(thread_t*)          /home/tony/workdir/stm32h7xxcpplib/output/mthread.o
mthread::threadControl(mthreadCtrlCmd, void*)     /home/tony/workdir/stm32h7xxcpplib/output/mthread.o
mthread::threadCreate(char const*, unsigned long, unsigned char, unsigned long, std::function<void ()> const&) /home/tony/workdir/stm32h7xxcpplib/output/mthread.o
mthread::threadCreate(char const*, void (*)(void*), void*, unsigned long, unsigned char, unsigned long) /home/tony/workdir/stm32h7xxcpplib/output/mthread.o
mthread::threadDelay(unsigned long)               /home/tony/workdir/stm32h7xxcpplib/output/mthread.o
                                                  /home/tony/workdir/stm32h7xxcpplib/output/main.o
mthread::threadDelayUntil(unsigned long*, unsigned long) /home/tony/workdir/stm32h7xxcpplib/output/mthread.o
mthread::threadDelete()                           /home/tony/workdir/stm32h7xxcpplib/output/mthread.o
mthread::threadDetach()                           /home/tony/workdir/stm32h7xxcpplib/output/mthread.o
mthread::threadExti()                             /home/tony/workdir/stm32h7xxcpplib/output/mthread.o
                                                  /home/tony/workdir/stm32h7xxcpplib/output/mcomponents.o
mthread::threadFind(char*)                        /home/tony/workdir/stm32h7xxcpplib/output/mthread.o
mthread::threadFunc(void*)                        /home/tony/workdir/stm32h7xxcpplib/output/mthread.o
mthread::threadInit(char const*, void (*)(void*), void*, void*, unsigned long, unsigned char, unsigned long) /home/tony/workdir/stm32h7xxcpplib/output/mthread.o
mthread::threadMdelay(long)                       /home/tony/workdir/stm32h7xxcpplib/output/mthread.o
mthread::threadResume()                           /home/tony/workdir/stm32h7xxcpplib/output/mthread.o
                                                  /home/tony/workdir/stm32h7xxcpplib/output/mipc.o
mthread::threadSelf()                             /home/tony/workdir/stm32h7xxcpplib/output/mthread.o
                                                  /home/tony/workdir/stm32h7xxcpplib/output/mipc.o
                                                  /home/tony/workdir/stm32h7xxcpplib/output/main.o
mthread::threadSleep(unsigned long)               /home/tony/workdir/stm32h7xxcpplib/output/mthread.o
mthread::threadSuspend(thread_t*)                 /home/tony/workdir/stm32h7xxcpplib/output/mthread.o
                                                  /home/tony/workdir/stm32h7xxcpplib/output/mipc.o
mthread::threadTimeout(void*)                     /home/tony/workdir/stm32h7xxcpplib/output/mthread.o
mthread::threadYield()                            /home/tony/workdir/stm32h7xxcpplib/output/mthread.o
                                                  /home/tony/workdir/stm32h7xxcpplib/output/mcomponents.o
operator delete(void*)                            /home/tony/workdir/stm32h7xxcpplib/output/mmem.o
                                                  /home/tony/workdir/stm32h7xxcpplib/output/mtimer.o
                                                  /home/tony/workdir/stm32h7xxcpplib/output/mthread.o
                                                  /home/tony/workdir/stm32h7xxcpplib/output/mipc.o
                                                  /home/tony/workdir/stm32h7xxcpplib/output/midle.o
                                                  /home/tony/workdir/stm32h7xxcpplib/output/main.o
operator delete[](void*)                          /home/tony/workdir/stm32h7xxcpplib/output/mmem.o
                                                  /home/tony/workdir/stm32h7xxcpplib/output/midle.o
operator new(unsigned int)                        /home/tony/workdir/stm32h7xxcpplib/output/mmem.o
                                                  /home/tony/workdir/stm32h7xxcpplib/output/mtimer.o
                                                  /home/tony/workdir/stm32h7xxcpplib/output/mthread.o
                                                  /home/tony/workdir/stm32h7xxcpplib/output/main.o
operator new[](unsigned int)                      /home/tony/workdir/stm32h7xxcpplib/output/mmem.o
                                                  /home/tony/workdir/stm32h7xxcpplib/output/mthread.o
printf                                            /opt/gcc-arm-none-eabi-10.3-2021.10/bin/../lib/gcc/arm-none-eabi/10.3.1/../../../../arm-none-eabi/lib/thumb/v7e-m+fp/hard/libc_nano.a(lib_a-printf.o)
                                                  /home/tony/workdir/stm32h7xxcpplib/output/systeminit.o
                                                  /home/tony/workdir/stm32h7xxcpplib/output/mtimer.o
                                                  /home/tony/workdir/stm32h7xxcpplib/output/mthread.o
                                                  /home/tony/workdir/stm32h7xxcpplib/output/mscheduler.o
                                                  /home/tony/workdir/stm32h7xxcpplib/output/mobject.o
                                                  /home/tony/workdir/stm32h7xxcpplib/output/mmem.o
                                                  /home/tony/workdir/stm32h7xxcpplib/output/mipc.o
                                                  /home/tony/workdir/stm32h7xxcpplib/output/mcomponents.o
                                                  /home/tony/workdir/stm32h7xxcpplib/output/main.o
printfSysMessage()                                /home/tony/workdir/stm32h7xxcpplib/output/systeminit.o
registerBDMAIsrCb                                 /home/tony/workdir/stm32h7xxcpplib/output/isrcommon.o
registerDMAIsrCb                                  /home/tony/workdir/stm32h7xxcpplib/output/isrcommon.o
registerGpioIsrCb                                 /home/tony/workdir/stm32h7xxcpplib/output/isrcommon.o
registerLPTimIsrCb                                /home/tony/workdir/stm32h7xxcpplib/output/isrcommon.o
registerRTCIsrCb                                  /home/tony/workdir/stm32h7xxcpplib/output/isrcommon.o
registerTimIsrCb                                  /home/tony/workdir/stm32h7xxcpplib/output/isrcommon.o
registerUsartIsrCb                                /home/tony/workdir/stm32h7xxcpplib/output/isrcommon.o
                                                  /home/tony/workdir/stm32h7xxcpplib/output/systeminit.o
registerWwdgIsrCb                                 /home/tony/workdir/stm32h7xxcpplib/output/isrcommon.o
setTickFreq                                       /home/tony/workdir/stm32h7xxcpplib/output/isrcommon.o
software_init_hook                                /opt/gcc-arm-none-eabi-10.3-2021.10/bin/../lib/gcc/arm-none-eabi/10.3.1/../../../../arm-none-eabi/lib/thumb/v7e-m+fp/hard/crt0.o
std::_Function_base::~_Function_base()            /home/tony/workdir/stm32h7xxcpplib/output/main.o
                                                  /home/tony/workdir/stm32h7xxcpplib/output/systeminit.o
                                                  /home/tony/workdir/stm32h7xxcpplib/output/mtimer.o
                                                  /home/tony/workdir/stm32h7xxcpplib/output/mthread.o
                                                  /home/tony/workdir/stm32h7xxcpplib/output/midle.o
                                                  /home/tony/workdir/stm32h7xxcpplib/output/mcomponents.o
std::_Function_base::~_Function_base()            /home/tony/workdir/stm32h7xxcpplib/output/main.o
                                                  /home/tony/workdir/stm32h7xxcpplib/output/systeminit.o
                                                  /home/tony/workdir/stm32h7xxcpplib/output/mtimer.o
                                                  /home/tony/workdir/stm32h7xxcpplib/output/mthread.o
                                                  /home/tony/workdir/stm32h7xxcpplib/output/midle.o
                                                  /home/tony/workdir/stm32h7xxcpplib/output/mcomponents.o
strncmp                                           /opt/gcc-arm-none-eabi-10.3-2021.10/bin/../lib/gcc/arm-none-eabi/10.3.1/../../../../arm-none-eabi/lib/thumb/v7e-m+fp/hard/libc_nano.a(lib_a-strncmp.o)
                                                  /home/tony/workdir/stm32h7xxcpplib/output/mobject.o
strncpy                                           /opt/gcc-arm-none-eabi-10.3-2021.10/bin/../lib/gcc/arm-none-eabi/10.3.1/../../../../arm-none-eabi/lib/thumb/v7e-m+fp/hard/libc_nano.a(lib_a-strncpy.o)
                                                  /home/tony/workdir/stm32h7xxcpplib/output/mobject.o
timxIsrCallback                                   /home/tony/workdir/stm32h7xxcpplib/output/isrcommon.o
unRegisterBDMAIsrCb                               /home/tony/workdir/stm32h7xxcpplib/output/isrcommon.o
unRegisterDMAIsrCb                                /home/tony/workdir/stm32h7xxcpplib/output/isrcommon.o
unRegisterGpioIsrCb                               /home/tony/workdir/stm32h7xxcpplib/output/isrcommon.o
unRegisterLPTimIsrCb                              /home/tony/workdir/stm32h7xxcpplib/output/isrcommon.o
unRegisterRTCIsrCb                                /home/tony/workdir/stm32h7xxcpplib/output/isrcommon.o
unRegisterTimIsrCb                                /home/tony/workdir/stm32h7xxcpplib/output/isrcommon.o
unRegisterUsartIsrCb                              /home/tony/workdir/stm32h7xxcpplib/output/isrcommon.o
unRegisterWwdgIsrCb                               /home/tony/workdir/stm32h7xxcpplib/output/isrcommon.o
usartxIsrCallback                                 /home/tony/workdir/stm32h7xxcpplib/output/isrcommon.o
uwTick                                            /home/tony/workdir/stm32h7xxcpplib/output/isrcommon.o
uwTickFreq                                        /home/tony/workdir/stm32h7xxcpplib/output/isrcommon.o
uwTickPrio                                        /home/tony/workdir/stm32h7xxcpplib/output/isrcommon.o
vfiprintf                                         /opt/gcc-arm-none-eabi-10.3-2021.10/bin/../lib/gcc/arm-none-eabi/10.3.1/../../../../arm-none-eabi/lib/thumb/v7e-m+fp/hard/libc_nano.a(lib_a-nano-vfprintf.o)
vfprintf                                          /opt/gcc-arm-none-eabi-10.3-2021.10/bin/../lib/gcc/arm-none-eabi/10.3.1/../../../../arm-none-eabi/lib/thumb/v7e-m+fp/hard/libc_nano.a(lib_a-nano-vfprintf.o)
